(dp0
S'Z'
p1
cnumpy.core.multiarray
_reconstruct
p2
(cnumpy
ndarray
p3
(I0
tp4
S'b'
p5
tp6
Rp7
(I1
(I1
I30
I9
tp8
cnumpy
dtype
p9
(S'f8'
p10
I0
I1
tp11
Rp12
(I3
S'<'
p13
NNNI-1
I-1
I0
tp14
bI00
S'\x8d(\xed\r\xbe0\xff?\xc0&k\xd4C4\xd4?\x07*\xe3\xdfg\\\xd4?h"lxz\xa5\x04@\x07\xf0\x16HP\xfc\xf3?Y\x868\xd6\xc5m\xfd?=\xf2\x07\x03\xcf\xbd\xe5?\xdc\xba\x9b\xa7:\xe4\xe9?V\xd4`\x1a\x86\x8f\xd6\xbf\x8d(\xed\r\xbe0\xff?h"lxz\xa5\x02@6<\xbdR\x96!\x00@\xe0-\x90\xa0\xf81\xb6?\x12\xa5\xbd\xc1\x17&\xfb?\x99B\xe75v\x89\xdc?W[\xb1\xbf\xec\x9e\xc4\xbf\xdc\xba\x9b\xa7:\xe4\xe9?V\xd4`\x1a\x86\x8f\xd6\xbf\x82sF\x94\xf6\x06\xf3\xbf\x88\x11\xc2\xa3\x8d#\xe6\xbf\xb0[\x04\xc6\xfa\x06\x96\xbf\xf3\x1f\xd2o_\x07\xe4\xbfE\xbb\n)?\xa9\xef\xbf\x82\xad\x12,\x0eg\xe5\xbf_{fI\x80\x9a\xe2\xbfvq\x1b\r\xe0-\xe2\xbfV\xd4`\x1a\x86\x8f\xd6\xbf\x82sF\x94\xf6\x06\xf3\xbf\x88\x11\xc2\xa3\x8d#\xe6\xbf>?\x8c\x10\x1em\xe6\xbf\xf3\x1f\xd2o_\x07\xe4\xbfE\xbb\n)?\xa9\xef\xbf\x82\xad\x12,\x0eg\xe5\xbfW[\xb1\xbf\xec\x9e\xc4\xbfvq\x1b\r\xe0-\xe2\xbfV\xd4`\x1a\x86\x8f\xd6\xbf\xbct\x93\x18\x04V\xca?\x88\x11\xc2\xa3\x8d#\xe6\xbf>?\x8c\x10\x1em\xe6\xbf\xe0-\x90\xa0\xf81\xb6?4\xf4Op\xb1\xa2\xd6?\x82\xad\x12,\x0eg\xe5\xbfW[\xb1\xbf\xec\x9e\xc4\xbfh"lxz\xa5\xcc\xbfV\xd4`\x1a\x86\x8f\xd6\xbf\xd5x\xe9&1\x08\xf4?\xf0.\x17\xf1\x9d\x98\xef?\x07*\xe3\xdfg\\\xd4?h"lxz\xa5\x04@\x19\xe2X\x17\xb7Q\x08@\x82\xad\x12,\x0eg\xe5\xbfW[\xb1\xbf\xec\x9e\xc4\xbf\xdc\xba\x9b\xa7:\xe4\xe9?V\xd4`\x1a\x86\x8f\xd6\xbf\xcc\xb4\xfd++M\xc2\xbf\xc0&k\xd4C4\xd4?!\xe5\'\xd5>\x1d\xd7\xbf\xf3\x1f\xd2o_\x07\xe4\xbf/Q\xbd5\xb0U\xe1\xbf\x99B\xe75v\x89\xdc?_{fI\x80\x9a\xe2\xbfvq\x1b\r\xe0-\xe2\xbf7\x1a\xc0[ A\xcd?\xdb\x8a\xfde\xf7\xe4\xea\xbf\x88\x11\xc2\xa3\x8d#\xe6\xbf>?\x8c\x10\x1em\xe6\xbf\xf3\x1f\xd2o_\x07\xe4\xbf/Q\xbd5\xb0U\xe1\xbf\x82\xad\x12,\x0eg\xe5\xbf\x11\xc7\xba\xb8\x8d\x06\xf0\xbfvq\x1b\r\xe0-\xe2\xbfV\xd4`\x1a\x86\x8f\xd6\xbf\xbct\x93\x18\x04V\xca?\x9a%\x01jj\xd9\xe4?\xa2\xb47\xf8\xc2d\xf5?\xf91\xe6\xae%\xe4\xfd?\x07\xf0\x16HP\xfc\xf3?Y\x868\xd6\xc5m\xfd?\xe1\x0b\x93\xa9\x82Q\xf8?\x02\xa46qr\xbf\xdd?V\xd4`\x1a\x86\x8f\xd6\xbf\x8d(\xed\r\xbe0\xff?\xc0&k\xd4C4\xd4?\x07*\xe3\xdfg\\\xd4?h"lxz\xa5\x04@/Q\xbd5\xb0U\xe1\xbfY\x868\xd6\xc5m\xfd?=\xf2\x07\x03\xcf\xbd\xe5?\'I\xd7L\xbe\xd9\xbe?Gw\x10;S\xe8\xe9?\xdb\x8a\xfde\xf7\xe4\xea\xbf\x88\x11\xc2\xa3\x8d#\xe6\xbf>?\x8c\x10\x1em\xe6\xbf\xf3\x1f\xd2o_\x07\xe4\xbf/Q\xbd5\xb0U\xe1\xbf\x82\xad\x12,\x0eg\xe5\xbf_{fI\x80\x9a\xe2\xbfvq\x1b\r\xe0-\xe2\xbfV\xd4`\x1a\x86\x8f\xd6\xbf\xbct\x93\x18\x04V\xca?\x88\x11\xc2\xa3\x8d#\xe6\xbf>?\x8c\x10\x1em\xe6\xbf\xf3\x1f\xd2o_\x07\xe4\xbf/Q\xbd5\xb0U\xe1\xbf\x82\xad\x12,\x0eg\xe5\xbf_{fI\x80\x9a\xe2\xbfvq\x1b\r\xe0-\xe2\xbfV\xd4`\x1a\x86\x8f\xd6\xbf\xbct\x93\x18\x04V\xca?\xb7A\xed\xb7v\xa2\x94\xbf!\xe5\'\xd5>\x1d\xd7\xbf&1\x08\xac\x1cZ\xdc?/Q\xbd5\xb0U\xe1\xbf\x82\xad\x12,\x0eg\xe5\xbf\x11\xc7\xba\xb8\x8d\x06\xf0\xbfvq\x1b\r\xe0-\xe2\xbfV\xd4`\x1a\x86\x8f\xd6\xbf\x82sF\x94\xf6\x06\xf3\xbf\x9c\xfe\xecG\x8a\xc8\xd6\xbf\xb0[\x04\xc6\xfa\x06\x96\xbf\xf3\x1f\xd2o_\x07\xe4\xbf/Q\xbd5\xb0U\xe1\xbf\x82\xad\x12,\x0eg\xe5\xbf\x11\xc7\xba\xb8\x8d\x06\xf0\xbfvq\x1b\r\xe0-\xe2\xbfV\xd4`\x1a\x86\x8f\xd6\xbf\xcc\xb4\xfd++M\xc2\xbf\x88\x11\xc2\xa3\x8d#\xe6\xbf>?\x8c\x10\x1em\xe6\xbf\xf3\x1f\xd2o_\x07\xe4\xbf/Q\xbd5\xb0U\xe1\xbf\xd30|DL\x89\xbc\xbf_{fI\x80\x9a\xe2\xbfvq\x1b\r\xe0-\xe2\xbfV\xd4`\x1a\x86\x8f\xd6\xbft\xb0\xfe\xcfa\xbe\xe1?\x88\x11\xc2\xa3\x8d#\xe6\xbf>?\x8c\x10\x1em\xe6\xbf\xe0-\x90\xa0\xf81\xb6?/Q\xbd5\xb0U\xe1\xbf\x82\xad\x12,\x0eg\xe5\xbf\x11\xc7\xba\xb8\x8d\x06\xf0\xbfvq\x1b\r\xe0-\xe2\xbfV\xd4`\x1a\x86\x8f\xd6\xbf\xbct\x93\x18\x04V\xca?\x88\x11\xc2\xa3\x8d#\xe6\xbf\x07*\xe3\xdfg\\\xd4?\xf3\x1f\xd2o_\x07\xe4\xbf/Q\xbd5\xb0U\xe1\xbf\x82\xad\x12,\x0eg\xe5\xbfW[\xb1\xbf\xec\x9e\xc4\xbfh"lxz\xa5\xcc\xbfV\xd4`\x1a\x86\x8f\xd6\xbf\x82sF\x94\xf6\x06\xf3\xbf\x88\x11\xc2\xa3\x8d#\xe6\xbf>?\x8c\x10\x1em\xe6\xbf\xf3\x1f\xd2o_\x07\xe4\xbf/Q\xbd5\xb0U\xe1\xbf\x82\xad\x12,\x0eg\xe5\xbf_{fI\x80\x9a\xe2\xbfvq\x1b\r\xe0-\xe2\xbfV\xd4`\x1a\x86\x8f\xd6\xbf\xd5x\xe9&1\x08\xf4?\xc0&k\xd4C4\xd4?z\xa5,C\x1c\xeb\xef?\xe0-\x90\xa0\xf81\xb6?\t\xfdL\xbdn\x11\xb8\xbf\x82\xad\x12,\x0eg\xe5\xbfg\x9b\x1b\xd3\x13\x96\xd0?\'I\xd7L\xbe\xd9\xbe?V\xd4`\x1a\x86\x8f\xd6\xbf\x82sF\x94\xf6\x06\xf3\xbf\x88\x11\xc2\xa3\x8d#\xe6\xbf>?\x8c\x10\x1em\xe6\xbf\xf3\x1f\xd2o_\x07\xe4\xbf/Q\xbd5\xb0U\xe1\xbf\x82\xad\x12,\x0eg\xe5\xbf_{fI\x80\x9a\xe2\xbfvq\x1b\r\xe0-\xe2\xbfV\xd4`\x1a\x86\x8f\xd6\xbf\xd5x\xe9&1\x08\xf4?h"lxz\xa5\x02@\xc0\xec\x9e<,\xd4\xfa?\xf91\xe6\xae%\xe4\xfd?4\xf4Op\xb1\xa2\xd6?\xdf\xe0\x0b\x93\xa9\x82\xf4?\xe1\x0b\x93\xa9\x82Q\xf8?\xd8\x81sF\x94\xf6\xf7?V\xd4`\x1a\x86\x8f\xd6\xbf\x82sF\x94\xf6\x06\xf3\xbf\x88\x11\xc2\xa3\x8d#\xe6\xbf>?\x8c\x10\x1em\xe6\xbf\xf3\x1f\xd2o_\x07\xe4\xbf/Q\xbd5\xb0U\xe1\xbf\x82\xad\x12,\x0eg\xe5\xbf_{fI\x80\x9a\xe2\xbfvq\x1b\r\xe0-\xe2\xbfV\xd4`\x1a\x86\x8f\xd6\xbf\x82sF\x94\xf6\x06\xf3\xbf\x9c\xfe\xecG\x8a\xc8\xd6\xbf!\xe5\'\xd5>\x1d\xd7\xbf\xf3\x1f\xd2o_\x07\xe4\xbf/Q\xbd5\xb0U\xe1\xbf\x82\xad\x12,\x0eg\xe5\xbf\x11\xc7\xba\xb8\x8d\x06\xf0\xbfvq\x1b\r\xe0-\xe2\xbfV\xd4`\x1a\x86\x8f\xd6\xbf\x82sF\x94\xf6\x06\xf3\xbf\x88\x11\xc2\xa3\x8d#\xe6\xbf>?\x8c\x10\x1em\xe6\xbf\xf3\x1f\xd2o_\x07\xe4\xbf/Q\xbd5\xb0U\xe1\xbf\x82\xad\x12,\x0eg\xe5\xbf_{fI\x80\x9a\xe2\xbfvq\x1b\r\xe0-\xe2\xbfV\xd4`\x1a\x86\x8f\xd6\xbf\xd5x\xe9&1\x08\xf4?h"lxz\xa5\x02@E\xd8\xf0\xf4J\xd9\x02@h"lxz\xa5\x04@\x07\xf0\x16HP\xfc\xf3?Y\x868\xd6\xc5m\xfd?\xc9\xe5?\xa4\xdf>\x06@\x91\x0fz6\xab>\x04@V\xd4`\x1a\x86\x8f\xd6\xbf\xcc\xb4\xfd++M\xc2\xbf\xc0&k\xd4C4\xd4?\x07*\xe3\xdfg\\\xd4?7\x1a\xc0[ A\xd1\xbf/Q\xbd5\xb0U\xe1\xbf\xd30|DL\x89\xbc\xbf_{fI\x80\x9a\xe2\xbfvq\x1b\r\xe0-\xe2\xbfV\xd4`\x1a\x86\x8f\xd6\xbf+oG8-x\xdf\xbf\x9c\xfe\xecG\x8a\xc8\xd6\xbf>?\x8c\x10\x1em\xe6\xbf\xf3\x1f\xd2o_\x07\xe4\xbf/Q\xbd5\xb0U\xe1\xbf\x82\xad\x12,\x0eg\xe5\xbf_{fI\x80\x9a\xe2\xbfh"lxz\xa5\xcc\xbfV\xd4`\x1a\x86\x8f\xd6\xbf\xdb\x8a\xfde\xf7\xe4\xea\xbf\x9a%\x01jj\xd9\xe4?\xa2\xb47\xf8\xc2d\xf5?!\x1f\xf4lV}\xf2?4\xf4Op\xb1\xa2\xd6?Y\x868\xd6\xc5m\xfd?\xe1\x0b\x93\xa9\x82Q\xf8?jM\xf3\x8eSt\xf2?V\xd4`\x1a\x86\x8f\xd6\xbf+oG8-x\xdf\xbf\x88\x11\xc2\xa3\x8d#\xe6\xbf>?\x8c\x10\x1em\xe6\xbf\xf3\x1f\xd2o_\x07\xe4\xbf/Q\xbd5\xb0U\xe1\xbf\x82\xad\x12,\x0eg\xe5\xbf_{fI\x80\x9a\xe2\xbfvq\x1b\r\xe0-\xe2\xbfV\xd4`\x1a\x86\x8f\xd6\xbf\xcc\xb4\xfd++M\xc2\xbf\x88\x11\xc2\xa3\x8d#\xe6\xbf>?\x8c\x10\x1em\xe6\xbf7\x1a\xc0[ A\xd1\xbf/Q\xbd5\xb0U\xe1\xbf\x82\xad\x12,\x0eg\xe5\xbf_{fI\x80\x9a\xe2\xbfvq\x1b\r\xe0-\xe2\xbfV\xd4`\x1a\x86\x8f\xd6\xbf'
p15
tp16
bsS'params'
p17
g2
(g3
(I0
tp18
g5
tp19
Rp20
(I1
(I768
tp21
g12
I00
S'\xf5\xe6\xa6\xf0\xa0C"@>\x9afT\xfc\xcd\x12@z\t;\r\x014\x17\xc0\x07\xd7\xc7D\xf6\n\x18\xc0q\x0cz_\tH\n\xc0\xb1\xed\x01\x98\x96\xfb\x05@\x80\x1cc\xa7R2\xfb\xbf\x13\x86_\xaan\x8e\x19\xc0\x17\x0e\xf8GOs\x1c@_\x0b\x90d\xcc\xa3$@Dj\xda\xd2\xf1<\x18\xc0\x93Ea\x08\xf2c\x12\xc0=T\xffQ\x015\t\xc0\x9c\xe6Xw\xfb\xe6\x18\xc0(\x0e\x94w\xfc\xac\x0f\xc0P_\xf1\xb3 x\x0c\xc0l\xda"\xd7\xd8\xf8\x07\xc0c|<v\xb2\x1f\x1a\xc0EQ~O$b\xe9?\xb7C\xab\x98\xb3\x1f\x1a\xc0=\x0cP\x87\xc2\xff"@\x1d}\xda\xf4\xab\x1f\x1a\xc0m-\x95.P\xff\x19\xc0\x0c\xa7\x8cQ\xac\x1f\x1a\xc0Z\'`\xd50e)@\xc3\x0e>^\xd2\xb0\x03\xc0\xd8\xce\x16\xa7h7\x14\xc0\x97\xc6R\xa0\xf6\xd6\x18@>[!=KQ\x16\xc0\xfd&\x19\xa9\x92\x9e\x12\xc0&\x99\xd5\x15\xfeJ\xe6?j\xf2C\x9f\x98\xc4\xb8?"\\R\t\x16~\xdc?\x84#T[\tV\xdc\xbf\x02\xc8\xcc\x80(:\xb6\xbf\xbbt\x1a \xb6\x11\xb1\xbf\xb4\x9bTg=H\xd5\xbf\x02\x18\xf3\xbf\xd1\xf9\xc7\xbf\xd4el\x81\xeb\x17\xe5?=z\x8cQh\xf9\xe5\xbfZ\xbd\xe7\xf2\xcf\xea\xc2?\xda"\x9ay}"\xc2\xbf\xd4\xca\x82\xe3(\x94\xa9?\x05\x19)&\x03\xc6\xd0?\xf3\x1c \xd5\x18\xae\xdc\xbf\x06\xf6\\$%V\xe9?\xb8\xfeW:\xe5@\xdf?\xdd"\x1a\xab\x90\x1b\xce\xbf\x00\xb6OFIR\xbf?v\xb8\xe5\xe0\x9b\xd0\xe6?\xaa\xc9N\xaa\xc7\xec\xd0?%\xa8\x9d\x80\x150\xc6\xbf\x0b\x08Z\xd6\xd1Y\xc9?\xc3\xad\r(\x8dk\xc0?\xde\xc8\xab*D\xb9\xd2?\x1d\x98\x88oM\r\xc3\xbf\xa3\x9d\xe3\xcc\x9aY\xaf\xbf\xdd|\xdd\x0b\xc3u\xd4\xbft\x81\xb8Q/\x06\xd5\xbf\xe6\xb1\x17]N\x1c\xa1\xbf^\xbe\xd8\x961k\xe1?\xea\x11\x15F\r\xfd\xcc?U\xec\xed\x1a\x9a\\\xd0?*Z\xdd\xae\x9e\x15\xa4?\x04\x1c\xe3GO\x11\xcc?\xf6\x18\xed\xda\x99\x87\xef\xbfd\x8c\xa3\xdb\x0c+\xf0?\t8i\x12O \x9d\xbfV\x9c\x03\x1c\x82}\xd5?\x0c\xd9\x1eEN\x82\xba\xbf\xb8\xf8y\x10\xe4\xc8\xd1\xbf\x17\xc4\x11\xfb[\x95\xa6\xbf\xe95\xc8\xdb\xdb\xf0\xc6\xbf:\xd7\x10:u[\xd8\xbf\xb1%\x15\xec\xc3\xa1\xab\xbfU?6\x93\xd0O\xfd?I\n\x84\x98g\x03\xcc\xbfE-\xf5\x1a\x08\xa7{\xbf\xd6\x9bzIy\x0c\xb9\xbfk\xb2[g\xdb>\xd5\xbf$\xe1\x05\xd4\xf4O\xd6\xbf\x1c\xb08\xfae^\xd0?\x8eC\x86\xd3\x18D\xda\xbf\xd4w1\x83\xc4p\xb5\xbf\x91\xabh\xf3\xff\x05\xa5\xbf\xc4\x9c\xfd\xf0\x83f\xd3\xbf:\x18\xe6\xa8&-\xb8\xbf\xd5\xb2\xeaY\x91t\xe0?\xd7>\xf80\x87~\xd5?D\xdf \x909\xff\xcc?\xa2a\xc5\xf1=\xb9\x85?\xe6\x9e\xac\xa5:\xc3\xbf?\n\x18\xf4m\xcd\xd9\xc8?\xab\x00\xbd\xf1\x02\xd2\x8d?\xe6L\x9fN\xb4\xaf\x8d\xbf\xa3&)\x988\xe7\x05\xc0h\x96T#ah\xb5\xbf;Y\x0f:i\xe5\x95\xbf#DX\xe1^\xf2\xce?rBe\xe2\x9d\x88\xcd?m\xba\xe7\xc0\xd9\x81\xd9?z\xc2\xcbg\x9e\xa9\xbf\xbf\xfd*T\xdaH\x8a\xc2?\x8d\xe0T\xe9\x95r\xbd?S\x94!!\xfc\x13\xbc\xbfp\x84\xff\x16\xf0`n?rE\xf1\xc1\x9e[\x96?\x95r\xaaY\x1db\xf3\xbf\xc0\xae\x11cR\x91\x88\xbf\x1f%\x95&\xbd\xed\xc5?7\xed/\x19\xf7#\xcc?1\xe5\x96\xf2\x13\xcd\xb3?h\xe2\xbb\xdd\xe8\x10\xd6?\xee\x86\x87\xdaBv\xba?\xb4\x97;\x89d\x87\xd4?;\xfa\xd5\xef.\x86\xb7?\x9e\xa7\xaee\xa17\xb8\xbf\x9cU\x83\xb4\xc6\xe0\xcc?\xb01\xc7\xb0\xd1\xdd\xc6\xbfw}\x8a\xbav\xef\xbb?\xe2r\x87q\x0c\x17\xeb\xbf\x14\x99\xdd K\x81\xe1\xbf\xb3\xd2"\x06\x9f\x8f\xb6?\xact\xabX\xeb\xcf\xe9?\xdaj\xc4\xaby\xd1\x9d\xbf\x8df\x17\xbd\x12\x82\xb8?(\x96\xb1\x12l\xa7\xba?Q\xdf\x07\xd5B\xf6\xcb?\xa3b\xcd\xdf\xed\xaa\xcb?%\x9c\x18\x9fj\xf5\xa8?\xd8\x14\xdcoI\xd2\x93\xbf\xc3Z\t\x8b\xc8n\xa3?W\xc9\xfc\xdf]\x89\xbd\xbf\xe0\x19\xe2\x8by\xfe\xb4?g\xfe\x14\xf7\xe0\xe6\xff\xbf\x19\xda\xb8e\xfa\x03\xab\xbf\x82\x0cU\n\xea\xc2\xb2\xbf&\xb51\xb2p9\xd3?\x8c\x0bF\x7f$=\xcf?R\xe17\xe6\x1f3\xcd?\xec\x93\x12!\xc5m\xc1\xbf\xdaG\xba\xf0\xcb\xe4\xd0?c\x82 \xa1k\x06\xc3?\xe7&\xfc=\x8d4\xa4\xbf\xe3\xb8\xc1x\xe3U\xab\xbf\xa5\n\x9f>EQ\x92?\x18\x12\x1c\xbe\xd2\x8f\xc3?\x9a\xc3c\xb8\x98\x93\xb7\xbf2\xae\x0bS\x85/\xb7\xbfn\xe2\x12\x1b"\xd7\xfe\xbf:\xec\x06\x85\x08y\xc2?\x1b\xa3}T\xb3\xb9w\xbf\x1e\xce\x06\x12$\xfa\xc4?\x88\xfe;@\x9b\x08\xab?-S\xecYe\x19\xe1?\xf9Tb+\xcd\x7f\xb0\xbfr{\xd8u8\xc4\xc8?\x11(\xe7Et\xfc\xc7?g\x06%\xce\x8d\x96\xc4\xbf*\xdci\x86kp\xc4?\xad\xb3Q\xb3\x9c\t\xc3\xbf\xb6\xa6\xb3\xa2\xde\xd4\xd1?J{\xec\x99\x93q\xc6?\\\x0f\xc1:\x1b\x03\xb9\xbf\x0e\x0f\xe8\xda?E\xa0?\x1a\x9dN\xba\xdd\x85\x01\xc0.\x1bC\xa0\xb5\xcf\xc1\xbf\x8b\xc5\xfev\xc6o\x93\xbfs\xe4\xb1\x02\xbd\x16\xe2?\xaeS\xd4\x8c<;\xcc\xbfW\xc1\nr\x8f\xb7\xd1?\x10\xb6\xadL\xe4`\xce\xbf?\x96\xd6A\x8f"\xc4\xbf2\x02\xbd@\x03g\xce\xbfkZQ80\x0c\xb6\xbf\xa9+\x0b\xa9\xe9\x0e\x99\xbf\xb7\xfbQ}8r\x9f?\xf7:\x14\x93\x8c\x9d\xd1?\xd9\x10\x8a;7I\xb7\xbfb-\x94Q\xceO\x91?\x90\xb9\xef\x96\x85\xd2Y\xbf\x83~\x9c\x0f\xad&\xaa\xbfN\nEb\xe6\xf3\xfa\xbf\x14.\x06\xc2\xf3\xe4\xd7\xbf0\x9e\x80)\x9f\xe3\xbd\xbfo\xbfjbcx\xe3?\xffm\x83^)\xdd\xd7?\x02\xebC\x17>S\xc5?\xe3\xd2T\x98\x04\x90\xac?s\x99F=\xe8\xe0\xbc?g%\xc6\xecpl\xcc?d\xfeo!\xde\xb2\xa9?\xb1\x1aZ\xa9\x03\xc4\x93\xbf\xa1MB\xa0\xaaG\xad?\xccH\xf1\xb9\x8c\xe7\xb9\xbf\xe1V\xfa\xb5\xff\xc1\x87\xbf+}A\x9aos\x96?}G\xe9=\x05Bq?\xcaI\xf6\xdf\xbb\xa6p?\xc9\xda\'\xd8\xfaf\x8a\xbf\x7f^B\x02R\xf3\x07\xc0\xae\x1a>\xf51p\xb8?\xbe6\xe2\t\x80\x9c\xd7?\xa9/\x84m\x17\xe8\xd0?\x1b{J\xcd(S\xcf\xbf\xd1e2\x00\xbee\xd1?\x80\xcb\x1dqH\xb2\xc9\xbf\xad\r\xfe)\xec\x0b\xca\xbf\xd0\xf3\x06\x0f\x07\x11\xdf\xbf\x8c\x99Php\x87\xbb\xbf\x8b0\x8fp(\x97\xbf?y\x8d\xf0\x8d%\x94\xa4\xbf\xf56B*<R\xd2?\xc4>d\xa1@k\xc2?!\xf2\x00\xb6\x1f\xe8\xc0?\x1d\x9c\xe0\xfc\x05\xe6\xab\xbf\xdc\xe0\xd7\xc2\xee\x92\xbe\xbff\x96\xfe\xff*f\xcf?\x00\xe3M\xfc\xcc\xe1\xa2?\x90\xf5\x04\xe1\x8d\x14\xf6\xbf\x9a\xa8\x8e\xc1\xf3\xe4\xd7\xbf/\x8e\x8c\'\x9f\xe3\xbd\xbf\xc8\xfa{\xdfax\xe3?2\x9c\xea\xa9)\xdd\xd7?\x7f\x8e\xf8\x7f<S\xc5?~\x1d\xab\x98\x04\x90\xac?\xf6\xea=\x03\xe6\xe0\xbc?\x05\x1f\xa6\xd1ql\xcc?q\xea:#\xde\xb2\xa9?\xe1\xd8M\xa8\x03\xc4\x93\xbf\x191"\xe0\xa6G\xad?\xcbL<\x86\x91\xe7\xb9\xbf\x8e\xe9\xa1+\x03\xc2\x87\xbf\xfc\xdc0\x15is\x96?\xd1y\x8c\xce\xfbAq?\x8cs\xac\x11\xce\xa6p?"\x19\x0b\x19\x01g\x8a\xbf\xae!\xa5\xaa\xa7\xdb\x9e?&-I\xab\xe8\xf4g?3\xc2\xef\x99\xc2\xc4\t\xc0\xabc\n\x8a\xdf]\xef?\x99%\xe5\xdbf\xe2\xe6?\xae.\xc8\xdb\xfdT\xbe?\xfd\xaa\n:)=\xd3?\xb1\xb2\xbdD\x0f\xbe\xe4\xbf\n\xbfh\x87\x9d\xe4\xc6\xbfj\x9f\xbd8\xee\x8f\xc4\xbf\xf9\x85_e\xd00\xd1\xbf/\xe1?\x0c\x18\x0c\xde?w\xe6\xd67\xa6\xa1\xd3?Idn\xbeH\xfd\xbd\xbf\xe4\xb8\xefm:\xe3\xc1?fMO/\x05\x89\xc5?\xc0\xe69_\x020\xb1?-\xa0\xcb\xe6\x91\x1f\xcb\xbf\x0f?\xe3p\t_\xd1\xbf\xf8\xcc\xdf\xe9\x1e\x98\xb6?\xb2O\xc0\xbf\xd0\x97\xaf\xbf\xff\xda\xb5\x01K\x98\xd2?\xf6\x15Qe\xb6\xb5\xaa\xbf\xdf\xc4j5\xf1\x7f\xc3\xbf\x1e\x98\xf1\xc1\xf3\xe4\xd7\xbf\xa9\x97\xd0\'\x9f\xe3\xbd\xbfe,\xd3\x9afx\xe3?\x04}\x88\xf4/\xdd\xd7?\xb1\x05\xd5\xed:S\xc5?FL\x9e\x94\x04\x90\xac?\x04\xd7b\xc1\xef\xe0\xbc?\xce\x1ecjvl\xcc?2\xde<\x1e\xde\xb2\xa9?\xdbk!\x9f\x03\xc4\x93\xbf\xdd\xf4\x82o\x8bG\xad?j\x1a{\xf9\xaa\xe7\xb9\xbf@e\x9f\xffb\xc1\x87\xbf\x8b\x9d\r\xa4Xs\x96?gY\xd2\xf6\xbcCq?\x1cw\x12\x15\\\xa8p?\xff\xd4\xf9\x1eIg\x8a\xbf?\x99P\x17\x17\xdc\x9e?G\xc4\x04\xa0\xbf\xf4g? \x08zC1s\x8e?\x1e\x03u\x1e\x95\xe0X\xbf\xbf\xe3 \xb3:_\n\xc0\xc5\x14\xc8\x1ar#\xe0\xbf\x0eB\x81\xf8\x9e\x88\xb0?\x87\xaf\xfb\xac\x91\xf1\xe5?uk\xd8\xe8^\xc8\xc4?\xfdB#\xd1\x02\x8f\xbc?\xc4\xff2\xf4\x91\x9b\xbe?\x1ap\x8a\x0f\xe0[\xd1?\xcey\x85!UW\xd3?\xf8F\x97\xac\xcf\x1a\xa4?%\x94\x13\x07/w\x90\xbfMx\xc9\xd5\x9b\xc0\x97?G\xd10H\xd8\x0e\xbe\xbfd)*,\xbb\x10\xb7?X\'\x007\xa7\x83\xbd?\xfa\xa6\x1d\xc0\x16M\x8d\xbf"}1"\xcd\t\x86\xbf\x88\xe2\xbbRY\xe1r\xbf\xa5&4E\xcav|?\x1e\xfc\xa1\x13\x88\xf6\x84?\xa9Z\xc2W\xa5>f?\xc3\xfe\xaf\x97\xd4@e?\xcbL\xecoh\xf4_?\xf9\xff\x8a\'\x065\x08\xc0\xcfg\x84\xc1\xf3\xe4\xd7\xbf\xe4j5&\x9f\xe3\xbd\xbf\xfb-N1jx\xe3?\x88\x1c\x05[2\xdd\xd7?/\xd0\xa5BAS\xc5?\xa7t9\x94\x04\x90\xac?\x07\x8c\xc0\xf2\xf9\xe0\xbc?\x15\x1fr\x97}l\xcc?tN\xc0 \xde\xb2\xa9?\xd00\x80\x9c\x03\xc4\x93\xbf\x91\xca)\xd3\xa7G\xad?\x9e\x19\xf43\x9d\xe7\xb9\xbf\xf8]d-]\xc1\x87\xbfWjs!cs\x96?\x0e\xcf!\x14\xe0Cq?\xd8y0\xd9A\xa8p?3\xf9 \x89\x14g\x8a\xbf\xb9\x8dD\xae\x01\xdc\x9e?\x1d\xd7Pq\xa9\xf4g?\x96N%\x07/s\x8e?d8\xc2\x0b\x95\xe0X\xbf\xb8:b\xde\xff|\x84?\x82"\xaf0\xb0\xe4Q?\x80E\xfe\xbf\xb6\xad\n\xc0,\x90{\xeb)P\xf8?\x08-\x9c\x91\xc4\x89\xe0?V5\xfb\xea^3\xd7?z\xc0\xc3s&\xd2\xd0?\x17\xbd\xb5R\xc3\xaf\xeb\xbf\xe5\xf1x\x86\x93\xe8\xc4\xbf@\x82\xd1\x15\xac\xf9\xe5\xbf\xf1:\xdcvY\x96\xa2\xbft\xc1c\x93e>\xf1?\x1b#\x11\x7f\\.\xc6?\xeb\x7fR\xdfSE\xb1\xbf\xa0\xa6\x81\xea>5\xdd?\xb0A\xc9d\xb4\x1a\xbc\xbfo\xc4zA\tJ\xaf?\x00\x86\x91_\xd9V\xdb\xbf8\t\xee\x80\x1b\x9f\xc3\xbf\x8dg\xd9<\xac(\xb6?\x1b~ufb7\xbc\xbf\xdb]/[\xbd\x81\xdd?\x8e\xe1\xb9\xfe6\xc4\xb6\xbf\x1b\x97\x10`l8\xf2?\xf7\xdf\xd3,ql\x8b\xbf\r\x86(\xcaq\x8dq\xbf\nP?\xce\x97\x88\x84\xbf\x80\x9f3\xe7;^\xda\xbfk\xda\x02*\x93\xde\xd1\xbf&1wmW)\xd3?\xe1D\xa5`m!\xdc?\xdfy)\xf1>D\x9f\xbf\xa5\xc1\xa8I\x0f\xecT?\x18\xc1\xa8\xb0\x7f-\x96\xbf--z\x90k\xd8\xd7?\xe4\x00<%\xba\xb1\xbf\xbf\xaf\xdd\x9b,\xbb\xd0\x9d?$\x11q\xe3+\x91\xa0?\xd5\xa3.H4\x12\x91\xbf\xc5M\xdb\x99Qc\xac?\x06\xaa\xef\x0f2\xd4\xcd?l\x91g\x07\xde\xb2\xb8?\xa2H\xf34\xd8\x9f\xb0?\x0b\xdd\xaa\xe7\xf9\xe5\xaf\xbf\x90\x1f\x1c\xf4+\xf7\x90?13\xaeqyK\x82\xbf\x8fSu\x1d*\xbd\x97?\xd0\xcb\x1c\xf6\x9aBy\xbf\xf0\x80c\xe5\xa6\x94C?\xce\xe7\x18~\xf6\xfep\xbf\x01\xaf\x1b\x9e\xc3\x17x?@9}%\xd1Ck\xbf\x14x\xb1\xaf\xdd\x9d\xa1\xbfXC\xf3\xfb\xd9|\x02\xc0\xcb\xae3\x9f\x17L\xd0\xbf,\xec\x98\x84\xefy\x8c?Y\xf6\n\xf3BD\xd5?\xc3Uq8q\xdc\xd8?\x01ut\xe4A\xa1\xc7?\x8e\x85\x00\xa0\x83&\x93\xbfn\x0c\xf2\x15z\xff\xca?\x9f\xd0+\xc0l0\xc9?\xf6D\xa1y\xf8m\xb1\xbfO?W\xf2\xad\xff\xa2\xbfu\xec\x7fB\xa9\x14\xa6\xbf\x9a`\xa27\xea\xeb\xb0?\xcc\x92\xfc\xb3\x94\xf1\xa3?w\xa1_&\xc0\xa0\xb3?\xb20\x80!\xfc1\xa9\xbfG\xb5\xa6\x1a\x97\x9d\xb1\xbf\xe1\x1e\xc0\xbd\x14Y\xb5?XW*8\r\xb0\xa1\xbf\xe5\xc0\xc8;\xa4hw\xbf\xee|\xb1\xf5\x94B\x91\xbf\xc7\xc4MlzR\xac?;\xa5$\xcfa\xb4\x82\xbf\x8f\xefq\x87MO\xad?\xbb\xc8\xc1LP\xc5\x81\xbf\xbe\xbd\x08U:o\xa1\xbf\x1c\x9e\xe5\x8b\x90\x96\xa0\xbf\x93\'\x89\xc9b\x9b\x00\xc0n%\r\xa6\x8e\xce\xe1?,\xd2\x0bJ\x17g\xc4\xbf\x81~V\x16\x8c\xdc\xdf?Q\xd3\xceM\x92\xe2\xab\xbf\x91K\xf2\x8e\xf0?\xe4\xbf\x90\x10\x13\xe04\xc7\xd0\xbf~\x11\x00\x96o$\xc2\xbfW\x8b\xbe\x0004\xdc\xbf\x161\xd5\xd9\xd5\xc1\xed?\x93\xb8\xe2%\xc1\xde\xb4\xbf\x08\xd9\x9c\x8c\x9d\xcc\xce\xbf]\xba\xf0#\xc0\xe7\xbf\xbf\xe5>_J-\xcd\xb6\xbf\x9b\xe4\x18R\xd9\x8e\x80\xbf\x07\x01\xd8r\x17\xc7\xa3?\x85\x0e\xd7\x82\x82\xfc\x9a?t\x90UH\xc5]\xc5?_[w\\8\r\xa9\xbf\xd5\xb2\xd2\xc7\xea\xe0\xa4\xbf\x87\xc4\x06\xdb=\xfd\x95\xbf\xc2\x0e\xa6V\x1f\x11\xd8?\xb6;\xf5\x89\xa7\xb3N?t8\xdfg\x1a\xec\xba?EmT\xae\x1dhd\xbf4\xdc\x99\xeb\xb0(\x88?\xf4\xb3+\x96%\x94\xb0\xbf,&pc\xe5\x8e\xcb?\xbe1)e1J\xeb\xbf\xac\x8e9\x12&\x9c\xcd\xbf|\\\x94\xf3\xc01\xb2\xbf\x1c\x19\xcb\xa8\xc6\xfa\xda?\xadm\xf7#\'/\xd3?\xc4\xc3\x9f\xc4\xe8A\xd2?\x9ef>\x8cp\xa1\xa1\xbf\xc5\x9d\x1f\xabT\x0c\xc1?\xbe\xf1R\xdd\xc2^\xc5?p\xe4!\xc91\x97\x98\xbf\x11\x94<;\xec\x89\x82\xbf\xe2\x8c\x85\x96\'\xd3\xa4?\xefy?\x8d\xcb\xf0\xb9?g\x85(V&th\xbfU\xeap3|\x05L?Fe;\xec\x849T?\x9a\xfc\xf8\xecQ\x86\x81\xbf\xcd\x8d\x99S\x0eGU?\xce9\xe2V\xec\xd5`?\xef\r\xc3\x11)"|\xbf\xbf~\x87\xeb\x89\x1eY?\xcfY\x80q\xc0\x9eX?-j\x84\xb1u\xd3Q?I\xb8\x145\x8b\xb8j\xbf\t\n\x07h\xc5pN?0K\xf8\x06\x98,h?7\xb4\xf7/oju?\x1f\xb0\x85Q\xa4a>\xbf^\x85\\BW5\x80\xbf\x15\x04&\x8b\x9a0\n\xc0N\xb0\x9c\xd9Hv\xb2\xbf\xfc\x9d\xad@\xc7?\xb5\xbf\xdc\xfb\x1fu[^\xd4?\xfa\x1c\xe1\xa2J;\xcf?\x86\x04\xf8\xdeR\xd2\xd7?p]\xd1\x04\xf3\x0b\xa8\xbf_\xad\xacU\x0c\xcc\xbd?\x1bIH\xc5\x0e\x9a\xba?\xe0XH\xad\xc4c\xaa\xbfk?\xbf\x11\xb8i\xb0?Q\x8cV\xfd\x1d\x86\xa1\xbf|{\xf2O\xc6\x90\xc2?\xeb\x9f\x10\r\xe2&\xb4?j\xa5*\x15G\xb2\xa6\xbf\xfe\x81\xabf\x02s\x89?\xc0%L\xcb\xa1\xa9\x93?paV\xe0<(\x81\xbf|\x90\xe7\xb7\xa0Nm\xbfc^\xba\x19UJs\xbf\xda\t\xff\xee\xff\xb1W\xbf\xf7j\x94\xb3:\tf\xbf%\xee\x12?\xe2\xc2Q\xbf{%\xf0\xdc\\\xc0\x7f\xbf@)Y\xa7\xa5AC\xbfs\xec\x94\xc1.\x9d|?\xdb\xc6\xcb\xe0Y\xe0m?\xd7\xd4\xf0^\x97\x96\x87\xbfG\x9d\\\x18A\xd0\x85\xbf\xf8\xc3~\x85\x87+\x82?-V\x93Y)\xe2\x08\xc0]\xd02\x08\x9b\xc2\x12@\xec-\xc4\xfa\xff4\x15@;\x19\xc82~\x13\x04@\x8d(\xed\r\xbe0\xff?\xc0&k\xd4C4\xd4?\x07*\xe3\xdfg\\\xd4?h"lxz\xa5\x04@\x07\xf0\x16HP\xfc\xf3?Y\x868\xd6\xc5m\xfd?=\xf2\x07\x03\xcf\xbd\xe5?\xdc\xba\x9b\xa7:\xe4\xe9?V\xd4`\x1a\x86\x8f\xd6\xbf\x8d(\xed\r\xbe0\xff?h"lxz\xa5\x02@6<\xbdR\x96!\x00@\xe0-\x90\xa0\xf81\xb6?\x12\xa5\xbd\xc1\x17&\xfb?\x99B\xe75v\x89\xdc?W[\xb1\xbf\xec\x9e\xc4\xbf\xdc\xba\x9b\xa7:\xe4\xe9?V\xd4`\x1a\x86\x8f\xd6\xbf\x82sF\x94\xf6\x06\xf3\xbf\x88\x11\xc2\xa3\x8d#\xe6\xbf\xb0[\x04\xc6\xfa\x06\x96\xbf\xf3\x1f\xd2o_\x07\xe4\xbfE\xbb\n)?\xa9\xef\xbf\x82\xad\x12,\x0eg\xe5\xbf_{fI\x80\x9a\xe2\xbfvq\x1b\r\xe0-\xe2\xbfV\xd4`\x1a\x86\x8f\xd6\xbf\x82sF\x94\xf6\x06\xf3\xbf\x88\x11\xc2\xa3\x8d#\xe6\xbf>?\x8c\x10\x1em\xe6\xbf\xf3\x1f\xd2o_\x07\xe4\xbfE\xbb\n)?\xa9\xef\xbf\x82\xad\x12,\x0eg\xe5\xbfW[\xb1\xbf\xec\x9e\xc4\xbfvq\x1b\r\xe0-\xe2\xbfV\xd4`\x1a\x86\x8f\xd6\xbf\xbct\x93\x18\x04V\xca?\x88\x11\xc2\xa3\x8d#\xe6\xbf>?\x8c\x10\x1em\xe6\xbf\xe0-\x90\xa0\xf81\xb6?4\xf4Op\xb1\xa2\xd6?\x82\xad\x12,\x0eg\xe5\xbfW[\xb1\xbf\xec\x9e\xc4\xbfh"lxz\xa5\xcc\xbfV\xd4`\x1a\x86\x8f\xd6\xbf\xd5x\xe9&1\x08\xf4?\xf0.\x17\xf1\x9d\x98\xef?\x07*\xe3\xdfg\\\xd4?h"lxz\xa5\x04@\x19\xe2X\x17\xb7Q\x08@\x82\xad\x12,\x0eg\xe5\xbfW[\xb1\xbf\xec\x9e\xc4\xbf\xdc\xba\x9b\xa7:\xe4\xe9?V\xd4`\x1a\x86\x8f\xd6\xbf\xcc\xb4\xfd++M\xc2\xbf\xc0&k\xd4C4\xd4?!\xe5\'\xd5>\x1d\xd7\xbf\xf3\x1f\xd2o_\x07\xe4\xbf/Q\xbd5\xb0U\xe1\xbf\x99B\xe75v\x89\xdc?_{fI\x80\x9a\xe2\xbfvq\x1b\r\xe0-\xe2\xbf7\x1a\xc0[ A\xcd?\xdb\x8a\xfde\xf7\xe4\xea\xbf\x88\x11\xc2\xa3\x8d#\xe6\xbf>?\x8c\x10\x1em\xe6\xbf\xf3\x1f\xd2o_\x07\xe4\xbf/Q\xbd5\xb0U\xe1\xbf\x82\xad\x12,\x0eg\xe5\xbf\x11\xc7\xba\xb8\x8d\x06\xf0\xbfvq\x1b\r\xe0-\xe2\xbfV\xd4`\x1a\x86\x8f\xd6\xbf\xbct\x93\x18\x04V\xca?\x9a%\x01jj\xd9\xe4?\xa2\xb47\xf8\xc2d\xf5?\xf91\xe6\xae%\xe4\xfd?\x07\xf0\x16HP\xfc\xf3?Y\x868\xd6\xc5m\xfd?\xe1\x0b\x93\xa9\x82Q\xf8?\x02\xa46qr\xbf\xdd?V\xd4`\x1a\x86\x8f\xd6\xbf\x8d(\xed\r\xbe0\xff?\xc0&k\xd4C4\xd4?\x07*\xe3\xdfg\\\xd4?h"lxz\xa5\x04@/Q\xbd5\xb0U\xe1\xbfY\x868\xd6\xc5m\xfd?=\xf2\x07\x03\xcf\xbd\xe5?\'I\xd7L\xbe\xd9\xbe?Gw\x10;S\xe8\xe9?\xdb\x8a\xfde\xf7\xe4\xea\xbf\x88\x11\xc2\xa3\x8d#\xe6\xbf>?\x8c\x10\x1em\xe6\xbf\xf3\x1f\xd2o_\x07\xe4\xbf/Q\xbd5\xb0U\xe1\xbf\x82\xad\x12,\x0eg\xe5\xbf_{fI\x80\x9a\xe2\xbfvq\x1b\r\xe0-\xe2\xbfV\xd4`\x1a\x86\x8f\xd6\xbf\xbct\x93\x18\x04V\xca?\x88\x11\xc2\xa3\x8d#\xe6\xbf>?\x8c\x10\x1em\xe6\xbf\xf3\x1f\xd2o_\x07\xe4\xbf/Q\xbd5\xb0U\xe1\xbf\x82\xad\x12,\x0eg\xe5\xbf_{fI\x80\x9a\xe2\xbfvq\x1b\r\xe0-\xe2\xbfV\xd4`\x1a\x86\x8f\xd6\xbf\xbct\x93\x18\x04V\xca?\xb7A\xed\xb7v\xa2\x94\xbf!\xe5\'\xd5>\x1d\xd7\xbf&1\x08\xac\x1cZ\xdc?/Q\xbd5\xb0U\xe1\xbf\x82\xad\x12,\x0eg\xe5\xbf\x11\xc7\xba\xb8\x8d\x06\xf0\xbfvq\x1b\r\xe0-\xe2\xbfV\xd4`\x1a\x86\x8f\xd6\xbf\x82sF\x94\xf6\x06\xf3\xbf\x9c\xfe\xecG\x8a\xc8\xd6\xbf\xb0[\x04\xc6\xfa\x06\x96\xbf\xf3\x1f\xd2o_\x07\xe4\xbf/Q\xbd5\xb0U\xe1\xbf\x82\xad\x12,\x0eg\xe5\xbf\x11\xc7\xba\xb8\x8d\x06\xf0\xbfvq\x1b\r\xe0-\xe2\xbfV\xd4`\x1a\x86\x8f\xd6\xbf\xcc\xb4\xfd++M\xc2\xbf\x88\x11\xc2\xa3\x8d#\xe6\xbf>?\x8c\x10\x1em\xe6\xbf\xf3\x1f\xd2o_\x07\xe4\xbf/Q\xbd5\xb0U\xe1\xbf\xd30|DL\x89\xbc\xbf_{fI\x80\x9a\xe2\xbfvq\x1b\r\xe0-\xe2\xbfV\xd4`\x1a\x86\x8f\xd6\xbft\xb0\xfe\xcfa\xbe\xe1?\x88\x11\xc2\xa3\x8d#\xe6\xbf>?\x8c\x10\x1em\xe6\xbf\xe0-\x90\xa0\xf81\xb6?/Q\xbd5\xb0U\xe1\xbf\x82\xad\x12,\x0eg\xe5\xbf\x11\xc7\xba\xb8\x8d\x06\xf0\xbfvq\x1b\r\xe0-\xe2\xbfV\xd4`\x1a\x86\x8f\xd6\xbf\xbct\x93\x18\x04V\xca?\x88\x11\xc2\xa3\x8d#\xe6\xbf\x07*\xe3\xdfg\\\xd4?\xf3\x1f\xd2o_\x07\xe4\xbf/Q\xbd5\xb0U\xe1\xbf\x82\xad\x12,\x0eg\xe5\xbfW[\xb1\xbf\xec\x9e\xc4\xbfh"lxz\xa5\xcc\xbfV\xd4`\x1a\x86\x8f\xd6\xbf\x82sF\x94\xf6\x06\xf3\xbf\x88\x11\xc2\xa3\x8d#\xe6\xbf>?\x8c\x10\x1em\xe6\xbf\xf3\x1f\xd2o_\x07\xe4\xbf/Q\xbd5\xb0U\xe1\xbf\x82\xad\x12,\x0eg\xe5\xbf_{fI\x80\x9a\xe2\xbfvq\x1b\r\xe0-\xe2\xbfV\xd4`\x1a\x86\x8f\xd6\xbf\xd5x\xe9&1\x08\xf4?\xc0&k\xd4C4\xd4?z\xa5,C\x1c\xeb\xef?\xe0-\x90\xa0\xf81\xb6?\t\xfdL\xbdn\x11\xb8\xbf\x82\xad\x12,\x0eg\xe5\xbfg\x9b\x1b\xd3\x13\x96\xd0?\'I\xd7L\xbe\xd9\xbe?V\xd4`\x1a\x86\x8f\xd6\xbf\x82sF\x94\xf6\x06\xf3\xbf\x88\x11\xc2\xa3\x8d#\xe6\xbf>?\x8c\x10\x1em\xe6\xbf\xf3\x1f\xd2o_\x07\xe4\xbf/Q\xbd5\xb0U\xe1\xbf\x82\xad\x12,\x0eg\xe5\xbf_{fI\x80\x9a\xe2\xbfvq\x1b\r\xe0-\xe2\xbfV\xd4`\x1a\x86\x8f\xd6\xbf\xd5x\xe9&1\x08\xf4?h"lxz\xa5\x02@\xc0\xec\x9e<,\xd4\xfa?\xf91\xe6\xae%\xe4\xfd?4\xf4Op\xb1\xa2\xd6?\xdf\xe0\x0b\x93\xa9\x82\xf4?\xe1\x0b\x93\xa9\x82Q\xf8?\xd8\x81sF\x94\xf6\xf7?V\xd4`\x1a\x86\x8f\xd6\xbf\x82sF\x94\xf6\x06\xf3\xbf\x88\x11\xc2\xa3\x8d#\xe6\xbf>?\x8c\x10\x1em\xe6\xbf\xf3\x1f\xd2o_\x07\xe4\xbf/Q\xbd5\xb0U\xe1\xbf\x82\xad\x12,\x0eg\xe5\xbf_{fI\x80\x9a\xe2\xbfvq\x1b\r\xe0-\xe2\xbfV\xd4`\x1a\x86\x8f\xd6\xbf\x82sF\x94\xf6\x06\xf3\xbf\x9c\xfe\xecG\x8a\xc8\xd6\xbf!\xe5\'\xd5>\x1d\xd7\xbf\xf3\x1f\xd2o_\x07\xe4\xbf/Q\xbd5\xb0U\xe1\xbf\x82\xad\x12,\x0eg\xe5\xbf\x11\xc7\xba\xb8\x8d\x06\xf0\xbfvq\x1b\r\xe0-\xe2\xbfV\xd4`\x1a\x86\x8f\xd6\xbf\x82sF\x94\xf6\x06\xf3\xbf\x88\x11\xc2\xa3\x8d#\xe6\xbf>?\x8c\x10\x1em\xe6\xbf\xf3\x1f\xd2o_\x07\xe4\xbf/Q\xbd5\xb0U\xe1\xbf\x82\xad\x12,\x0eg\xe5\xbf_{fI\x80\x9a\xe2\xbfvq\x1b\r\xe0-\xe2\xbfV\xd4`\x1a\x86\x8f\xd6\xbf\xd5x\xe9&1\x08\xf4?h"lxz\xa5\x02@E\xd8\xf0\xf4J\xd9\x02@h"lxz\xa5\x04@\x07\xf0\x16HP\xfc\xf3?Y\x868\xd6\xc5m\xfd?\xc9\xe5?\xa4\xdf>\x06@\x91\x0fz6\xab>\x04@V\xd4`\x1a\x86\x8f\xd6\xbf\xcc\xb4\xfd++M\xc2\xbf\xc0&k\xd4C4\xd4?\x07*\xe3\xdfg\\\xd4?7\x1a\xc0[ A\xd1\xbf/Q\xbd5\xb0U\xe1\xbf\xd30|DL\x89\xbc\xbf_{fI\x80\x9a\xe2\xbfvq\x1b\r\xe0-\xe2\xbfV\xd4`\x1a\x86\x8f\xd6\xbf+oG8-x\xdf\xbf\x9c\xfe\xecG\x8a\xc8\xd6\xbf>?\x8c\x10\x1em\xe6\xbf\xf3\x1f\xd2o_\x07\xe4\xbf/Q\xbd5\xb0U\xe1\xbf\x82\xad\x12,\x0eg\xe5\xbf_{fI\x80\x9a\xe2\xbfh"lxz\xa5\xcc\xbfV\xd4`\x1a\x86\x8f\xd6\xbf\xdb\x8a\xfde\xf7\xe4\xea\xbf\x9a%\x01jj\xd9\xe4?\xa2\xb47\xf8\xc2d\xf5?!\x1f\xf4lV}\xf2?4\xf4Op\xb1\xa2\xd6?Y\x868\xd6\xc5m\xfd?\xe1\x0b\x93\xa9\x82Q\xf8?jM\xf3\x8eSt\xf2?V\xd4`\x1a\x86\x8f\xd6\xbf+oG8-x\xdf\xbf\x88\x11\xc2\xa3\x8d#\xe6\xbf>?\x8c\x10\x1em\xe6\xbf\xf3\x1f\xd2o_\x07\xe4\xbf/Q\xbd5\xb0U\xe1\xbf\x82\xad\x12,\x0eg\xe5\xbf_{fI\x80\x9a\xe2\xbfvq\x1b\r\xe0-\xe2\xbfV\xd4`\x1a\x86\x8f\xd6\xbf\xcc\xb4\xfd++M\xc2\xbf\x88\x11\xc2\xa3\x8d#\xe6\xbf>?\x8c\x10\x1em\xe6\xbf7\x1a\xc0[ A\xd1\xbf/Q\xbd5\xb0U\xe1\xbf\x82\xad\x12,\x0eg\xe5\xbf_{fI\x80\x9a\xe2\xbfvq\x1b\r\xe0-\xe2\xbfV\xd4`\x1a\x86\x8f\xd6\xbf'
p22
tp23
bs.(dp0
S'obj_track'
p1
(lp2
F339.3268253875762
aF308.16395638758894
aF262.5880136634418
aF226.53033839058418
aF213.94548986862458
aF197.54262297274352
aF185.1423085991015
aF167.56323493769244
aF147.15051390891603
aF129.63071335500624
aF123.59079429365669
aF116.3153172831856
aF112.94314963886885
aF108.68237405779229
aF105.58847891895844
aF103.3271713971543
aF101.52067963003542
aF100.26492338289025
aF99.60986738310869
aF99.07767866447587
aF98.31858477981307
aF96.94176351972922
aF96.6430397177731
aF95.44683018642506
aF95.16431601165729
aF94.62916668309983
aF94.62916668309983
aF337.9158206568693
aF93.1905544132774
aF92.96222172444128
aF92.79638228363844
aF92.64347193235942
aF92.64270735438424
aF92.6429136309413
aF92.64271050389765
aF92.64270740538211
aF92.6427073552108
aF92.64270735439764
aF92.6427073543844
aF92.64270735438421
aF92.64270735438429
aF92.64270735438421
aF92.64270735438421
aF92.64270735438421
aF92.64270735438421
aF92.64270735438421
aF92.64270735438426
aF92.64270735438421
aF92.64270735438421
aF92.64270735438421
aF92.64270735438421
aF92.64270735438421
aF217.28613832480397
aF91.8522273918801
aF91.17455632648307
aF90.53823707513128
aF90.21761591270965
aF89.79710870443002
aF88.56363781076213
aF89.70215099571419
aF88.14881435189551
aF87.79786284302118
aF87.45664305305719
aF86.99285890836181
aF86.09369994165004
aF84.85391302030717
aF83.39195027034816
aF82.1891380646588
aF81.34154028256896
aF80.84971987460214
aF80.69642264547271
aF80.47204576492032
aF80.3500846018061
aF80.1551254312248
aF79.9057390657001
aF79.69211313408131
aF79.60006473806703
aF79.60006473806703
aF252.76489471416596
aF70.13680209532734
aF70.1674980083743
aF68.9262623927402
aF68.57272456693781
aF67.16817403211572
aF67.14920030947712
aF67.1501577587866
aF67.14925896993714
aF67.14920630457458
aF67.14920096228066
aF67.14920038106567
aF67.149200317334
aF67.14920031033935
aF67.14920030957182
aF67.1492003094876
aF67.14920030947835
aF67.14920030947741
aF67.14920030947734
aF67.14920030947725
aF67.14920030947712
aF67.14920030947712
aF67.14920030947721
aF67.14920030947712
aF67.14920030947712
aF67.14920030947712
aF146.13423794222876
aF65.54745285052249
aF64.82608935142898
aF64.23582257758429
aF63.39781930187529
aF63.48307161975981
aF63.2661031589285
aF63.124027867053854
aF62.48778924587583
aF62.064601700800814
aF61.45447502270669
aF59.584617439845616
aF58.710817669657914
aF57.395475303574614
aF56.94178052402147
aF55.892872679922874
aF55.66000006051009
aF55.40000139172414
aF55.17567031969169
aF54.926268292079044
aF54.30049436003168
aF54.64313489655697
aF54.167108551354985
aF54.07650179846282
aF53.800819024884966
aF53.800819024884966
aF287.6413695055095
aF46.84398054009743
aF46.440129629598964
aF45.984724948686235
aF44.68317613012739
aF44.4932510884412
aF44.49168754047635
aF44.49245137741593
aF44.49172945992519
aF44.491692879153504
aF44.49168837445802
aF44.49168767567474
aF44.491687562529386
aF44.49168754407727
aF44.49168754106425
aF44.49168754057236
aF44.49168754049221
aF44.49168754047905
aF44.491687540476846
aF44.491687540476356
aF44.49168754047653
aF44.491687540476455
aF44.49168754047635
aF44.491687540476306
aF44.49168754047642
aF44.491687540476306
aF131.44200895055212
aF42.749074780745275
aF41.82770912776111
aF41.30766960900526
aF41.08732109947392
aF40.58478831697091
aF40.61668999496547
aF40.382758585054646
aF40.227629902204306
aF40.12478161150253
aF40.01035570163754
aF39.63677678999432
aF39.11310532425194
aF39.776222916552165
aF38.91209661125119
aF38.596604802210855
aF38.44449131024513
aF38.302769986090205
aF38.13344803043309
aF37.638901041359205
aF37.418745243302155
aF37.11018165387296
aF36.82942652582163
aF36.64026802357427
aF36.422750954151404
aF36.422750954151404
aF249.329078338527
aF33.138216625781865
aF32.9079362926075
aF31.319164284280255
aF30.708066650448778
aF30.603902125618013
aF30.605187502261906
aF30.603901784439827
aF30.60389234808858
aF30.603891122700382
aF30.605619373021717
aF30.60395685578431
aF30.603897505162564
aF30.603892148210853
aF30.603891316154293
aF30.60389116053675
aF30.603891130155112
aF30.60389112417093
aF30.60389112299064
aF30.60389112275701
aF30.60389112271124
aF30.60389112270243
aF30.60389112270051
aF30.60389112270052
aF30.60389112270018
aF30.60389112270018
aF154.67495703012688
aF29.478869412220433
aF28.98403836931972
aF28.776251718974095
aF28.582481190499394
aF28.3008914417751
aF28.333997575971438
aF28.188917747399113
aF28.064018236042067
aF27.947482524936852
aF27.82741048315162
aF27.685296885408576
aF27.532440808950856
aF27.2528168518267
aF27.067561796590336
aF26.866918425263698
aF26.5922921298698
aF26.544790242498458
aF26.435085497191565
aF26.34809139265742
aF26.246074818677087
aF26.097066544177203
aF26.50211476334428
aF26.01770003419894
aF25.863609048750654
aF25.863609048750654
aF281.27095765279535
aF24.763897853007194
aF24.56718721296978
aF24.5208967615504
aF24.356592159877685
aF23.747921406718433
aF23.682968698323585
aF23.683383233898432
aF23.682709010167848
aF23.683762642276765
aF23.682665920057882
aF23.683781935884717
aF23.68270647734545
aF23.682669589547263
aF23.682666492295866
aF23.682666028112905
aF23.68266594140342
aF23.682665924314342
aF23.682665920908182
aF23.682665920227823
aF23.68266592009148
aF23.68266592006455
aF23.682665920058753
aF23.68266592005796
aF23.682665920058078
aF23.682665920057882
aF195.6085643298563
aF23.331003965838704
aF23.192210765575346
aF23.063853054932082
aF22.922368095348922
aF22.814222701767907
aF22.755379489239225
aF22.672491299015775
aF22.61500566225026
aF22.544782764267566
aF22.463355489618174
aF22.379768632220028
aF22.285370627315366
aF22.242171522927073
aF22.163558966223537
aF22.11130869995508
aF22.03656790541956
aF21.908580740461367
aF22.137996838516795
aF21.84501204337782
aF21.709803549450687
aF21.57986654460662
aF21.418293110187108
aF21.245372699769938
aF21.0772134868175
aF21.0772134868175
aF283.24739476459393
aF20.77731281563348
aF20.589413666257055
aF20.58096152317321
aF20.551759580186676
aF20.430016881036646
aF20.385522573098882
aF20.380808112717325
aF20.380771015602605
aF20.380737150767786
aF20.380730572834985
aF20.38073034964159
aF20.38073034964159
aF268.86071548504935
aF20.22843967037042
aF20.14774652369237
aF19.941401677942856
aF19.84376540066792
aF19.74113352495663
aF19.64356860019977
aF19.57647552016719
aF19.456969854887873
aF19.499594998851837
aF19.42296765966764
aF19.379540753394817
aF19.343814558495897
aF19.308859310780207
aF19.27188556343771
aF19.237063963486925
aF19.20365971922568
aF19.15981415424066
aF19.12447669379093
aF19.083655873700216
aF19.051957109381448
aF19.023332023410905
aF19.0035819031658
aF18.919247927596285
aF18.874090951769908
aF18.874090951769908
aF290.4259163929996
aF18.953809448282144
aF18.761601430841857
aF18.759281937946035
aF18.7505660932377
aF18.69825650915991
aF18.698062784595017
aF18.69813360090313
aF18.698064227322433
aF18.69806281659531
aF18.698062785306202
aF18.69806278461054
aF18.698062784595137
aF18.69806278459482
aF18.698062784594867
aF18.698062784595052
aF18.69806278459482
aF18.698133600904914
aF18.69806422732247
aF18.6980628165954
aF18.6980627853061
aF18.698062784610705
aF18.698062784595283
aF18.69806278459491
aF18.698062784594864
aF18.69806278459482
aF171.6351730841415
aF18.64980633068327
aF18.614861908696795
aF18.558558279539927
aF18.505222500163995
aF18.468287145762595
aF18.440710948289507
aF18.403185130964808
aF18.3783747934772
aF18.36402871016737
aF18.327570391049832
aF18.312126878347186
aF18.27356120379214
aF18.23015696783237
aF18.176280984822224
aF18.114319251179825
aF18.072097329601096
aF18.025023859230323
aF17.977495619499216
aF17.945689544658126
aF17.91718656215841
aF17.87905427506733
aF17.807835024659166
aF17.702228680561415
aF17.57118490621861
aF17.57118490621861
aF267.86070003895327
aF17.639199729989482
aF17.49663901851112
aF17.49405144402815
aF17.484219967359106
aF17.45302741208171
aF17.427743197663666
aF17.427873905542313
aF17.42774341021111
aF17.427742299899435
aF17.42774230522499
aF17.427888570033616
aF17.42774783000907
aF17.427742837896236
aF17.427742390587508
aF17.427742321331873
aF17.427742308378527
aF17.42774230584688
aF17.427742305347643
aF17.427742305248962
aF17.427742305229515
aF17.427742305225532
aF17.427742305224648
aF17.427742305225085
aF17.42774230522473
aF17.427742299899435
aF161.36004191757993
aF17.32441933565333
aF17.232808536779597
aF17.12472920273543
aF17.09508129129749
aF17.060712371898003
aF17.02629513712908
aF17.006637149639396
aF16.971249023688348
aF16.98370189806356
aF16.95453052892705
aF16.934563525914196
aF16.913669250929193
aF16.901788407969615
aF16.883314416726456
aF16.868903653487006
aF16.855181309394066
aF16.828750646799215
aF16.875299982228235
aF16.81580457721367
aF16.789269590102013
aF16.77146266330847
aF16.757262245050136
aF16.74422485811916
aF16.728446977321568
aF16.728446977321568
aF267.8035935976897
aF16.913418333417496
aF16.699002280267926
aF16.698257660431434
aF16.69541573959917
aF16.686208814265687
aF16.67774195125232
aF16.6778142418085
aF16.677746024647245
aF16.677742281330634
aF16.67774197888583
aF16.677741953572195
aF16.677741951447366
aF16.677741951268395
aF16.677741951253864
aF16.677741951252486
aF16.67774195125236
aF16.677741951252298
aF16.677741951252298
aF16.677741951252496
aF16.677741951252592
aF16.677741951252298
aF16.677755910867567
aF16.6777425954849
aF16.677741992282915
aF16.677741951252298
aF170.2379999599055
aF16.66009139305146
aF16.646315857318935
aF16.62503393330748
aF16.610480060435272
aF16.594272360229766
aF16.579683908399414
aF16.56102107718369
aF16.5475351898959
aF16.539063896472985
aF16.521676325909233
aF16.504468379787742
aF16.471952635216805
aF16.452341830780405
aF16.426362636963606
aF16.410751135286116
aF16.39792420223902
aF16.376147225628173
aF16.358410980277608
aF16.34432727975529
aF16.313085353839593
aF16.27641387232348
aF16.194969398384192
aF16.1010533035399
aF15.963224121204643
aF15.963224121204643
aF225.83209818033055
aF16.03688412927503
aF15.932470837928086
aF15.928710455130545
aF15.914585693713974
aF15.83688416076739
aF15.836287625060432
aF15.83631260860712
aF15.836288810413961
aF15.836287698432393
aF15.836287629681873
aF15.83628762535169
aF15.836287625078537
aF15.836287625061956
aF15.836287625060265
aF15.836287625060876
aF15.836287625060265
aF15.836312608607638
aF15.836288810413794
aF15.836287698432287
aF15.836287629681856
aF15.836287625351915
aF15.836287625078938
aF15.83628762506136
aF15.836287625060283
aF15.836287625060265
aF244.2236324077448
aF15.777433548227002
aF15.732521233725102
aF15.61993215010444
aF15.623468773144346
aF15.604078328377216
aF15.58986403931679
aF15.56322666058663
aF15.556186173612438
aF15.546510208774244
aF15.535302407223593
aF15.527507061607
aF15.511963127815822
aF15.51204812417119
aF15.502643072061758
aF15.49425360815631
aF15.48587806960646
aF15.478754216084567
aF15.469609369891757
aF15.456280810512798
aF15.446297364040785
aF15.436282204368379
aF15.428598731005565
aF15.419945509218199
aF15.410512081156089
aF15.410512081156089
aF256.39363120028884
aF15.615859637625658
aF15.4045240411657
aF15.404389074798019
aF15.403890726589044
aF15.400734056446407
aF15.400514458452317
aF15.400496513836693
aF15.400494404977067
aF15.400494236707821
aF15.400494236707821
aF220.41366485307938
aF15.392701008337767
aF15.38698905246337
aF15.376127559023384
aF15.369475834365087
aF15.361751376264422
aF15.353006130515055
aF15.346996053202869
aF15.33993220217057
aF15.331189511747617
aF15.324343430238308
aF15.315182686694733
aF15.305246289656
aF15.293679379792241
aF15.290288939704002
aF15.277316265056907
aF15.272868747470987
aF15.267562215358424
aF15.258248619008587
aF15.245596147170904
aF15.225385245871895
aF15.203583719691725
aF15.17802217728077
aF15.154318793617634
aF15.11193666894005
aF15.11193666894005
aF206.46578878109506
aF15.17040349461848
aF15.1074207800391
aF15.106463837121492
aF15.102964969830719
aF15.084325263873499
aF15.082886411022162
aF15.082831640027468
aF15.082827184599417
aF15.082826693854933
aF15.082826693854933
aF157.34406029460604
aF15.054950373083635
aF15.031735627980684
aF15.007861443746695
aF14.998196585091566
aF14.987068302339928
aF14.974613419957258
aF14.96788352914589
aF14.956760059005234
aF14.946710420426182
aF14.938047712133066
aF14.930659916780726
aF14.9245894495516
aF14.916620328002654
aF14.911557542592984
aF14.905280212955425
aF14.900694075199254
aF14.894723975902938
aF14.890589927992526
aF14.883574912820944
aF14.8800761051716
aF14.876492791356597
aF14.86922158078072
aF14.856721092616194
aF14.841281336052095
aF14.841281336052095
aF53.37471623400115
aF14.839852457948908
aF14.83963502876109
aF14.838943561728591
aF14.836171385193108
aF14.834144918472791
aF14.833652988938173
aF14.833619330202186
aF14.833615482937262
aF14.83361528261571
aF14.833615285111428
aF14.833615282615963
aF14.833615282615526
aF14.833615282615987
aF14.833615282615526
aF14.833615282615526
aF14.833615282615565
aF14.833615282615526
aF14.833615282615526
aF14.833615282615572
aF14.833615282615526
aF14.833615282615526
aF14.833615282615572
aF14.833615282615526
aF14.83361528511071
aF14.833615282615526
aF187.15941703012723
aF14.824716224350507
aF14.816823879729878
aF14.80390156316054
aF14.801784337035443
aF14.796997300381584
aF14.790957502048965
aF14.78392315016018
aF14.774390592319655
aF14.770298683265501
aF14.757857873279246
aF14.75436866179626
aF14.750351892000609
aF14.743392490153997
aF14.732747692591538
aF14.724413556873074
aF14.718012817240961
aF14.714132627889246
aF14.710771038220948
aF14.703980751428148
aF14.700258367391577
aF14.690104896637923
aF14.684776985845353
aF14.67745433818769
aF14.662924240907184
aF14.662924240907184
aF203.70758157040058
aF14.762916874845025
aF14.659049091265015
aF14.658565122976285
aF14.656792833481944
aF14.646359375830848
aF14.645233952589912
aF14.645155272188266
aF14.645149310486051
aF14.645148778954063
aF14.645148779289848
aF14.64514877895381
aF14.645148778954052
aF14.64514877895381
aF14.645148778588446
aF14.645148778588446
aF298.90076339856967
aF14.637755768951184
aF14.633325680075792
aF14.621260045057223
aF14.621608305536032
aF14.618580016599111
aF14.616336286844955
aF14.605905445745098
aF14.606020531030161
aF14.601898960722295
aF14.598551873738614
aF14.591416099427395
aF14.588839998207355
aF14.585013678629448
aF14.580896340692117
aF14.577529799529273
aF14.571379227630686
aF14.564474106380352
aF14.559176928421685
aF14.54995843053149
aF14.544662216861
aF14.538672849916072
aF14.527313741536496
aF14.522805167961533
aF14.515944575855922
aF14.515944575855922
aF31.893645116481515
aF14.515153015070243
aF14.515070360441484
aF14.51476819546231
aF14.5132042631265
aF14.513046031212433
aF14.51307481026328
aF14.513047701703915
aF14.513046245501844
aF14.513046064117855
aF14.513046036425884
aF14.513046032042809
aF14.513046031344615
aF14.513046031233678
aF14.513046031215136
aF14.513046031212898
aF14.513046031212284
aF14.51304603121298
aF14.513046031211815
aF14.51304603121189
aF14.513046031211815
aF14.513074810264463
aF14.51304770170405
aF14.513046245501847
aF14.51304606411805
aF14.513046031211815
aF169.02673323868444
aF14.509073403537617
aF14.50478998774361
aF14.493423514811461
aF14.491725635513635
aF14.486970669892678
aF14.48199002779074
aF14.476074250121773
aF14.468174455525482
aF14.463483875539794
aF14.452433942018583
aF14.448928452584596
aF14.444508493724843
aF14.439795026737851
aF14.434998705300714
aF14.430882317774405
aF14.428411659465766
aF14.423750897437614
aF14.41913786871153
aF14.414028801626749
aF14.41166370846273
aF14.408994233874463
aF14.40424658136958
aF14.391426594937382
aF14.378619311926073
aF14.378619311926073
aF114.33137515256647
aF14.377858306574765
aF14.375606275457361
aF14.374982926962101
aF14.37261158643377
aF14.365060937882976
aF14.358881178060813
aF14.35889236881022
aF14.358881571010407
aF14.358881211213028
aF14.358881183045838
aF14.358881179000008
aF14.358881178247515
aF14.358881178098525
aF14.35888117806877
aF14.35888117806254
aF14.358881178061164
aF14.358881178060905
aF14.3588811780604
aF14.358881178060557
aF14.358881178061111
aF14.3588811780604
aF14.35889236881076
aF14.358881571010365
aF14.358881211213433
aF14.3588811780604
aF367.4799782333317
aF14.346960336354218
aF14.343737524080908
aF14.330177995362764
aF14.328439532213949
aF14.321368730036504
aF14.317236222615797
aF14.311623315694156
aF14.3077811631441
aF14.305661872551852
aF14.303828983551362
aF14.302364120483727
aF14.300177453399808
aF14.296523175898976
aF14.289460937749212
aF14.284130236526522
aF14.272463816360574
aF14.262454657764223
aF14.2550887547692
aF14.246651828331299
aF14.237009390024138
aF14.230998109568691
aF14.223897292561873
aF14.221838679871205
aF14.213638635125772
aF14.213638635125772
aF54.565896277072326
aF14.212025304956324
aF14.211837000134931
aF14.21131439656175
aF14.209517256890877
aF14.206853940594648
aF14.206073137302596
aF14.206081269657826
aF14.206073344938812
aF14.2060731432354
aF14.206073137471762
aF14.206073137307254
aF14.206073137301935
aF14.206073137302173
aF14.206073137302475
aF14.206073137301935
aF14.206081269659531
aF14.206073344938567
aF14.206073143235827
aF14.206073137472174
aF14.206073137307033
aF14.206073137301786
aF14.206073137302841
aF14.206073137301786
aF14.206081269658796
aF14.206073137301786
aF235.67443218741442
aF14.202520651218336
aF14.199678737892722
aF14.184630591135956
aF14.189540003145467
aF14.181474701823568
aF14.178259222081529
aF14.167187646534156
aF14.165712178582229
aF14.159464757360546
aF14.155876237207032
aF14.150569097181918
aF14.14425680818854
aF14.134849845391155
aF14.13817479231913
aF14.130548255907062
aF14.1273089753413
aF14.125281130050706
aF14.12269681260086
aF14.120912149105283
aF14.117023468107373
aF14.115896990700424
aF14.114267254924584
aF14.111554241119567
aF14.106640859529065
aF14.106640859529065
aF27.601935868628505
aF14.105926735375323
aF14.105848231143817
aF14.10557224168235
aF14.104433808833104
aF14.103997321794218
aF14.103996325338432
aF14.104007879928172
aF14.103996905247325
aF14.103996363451873
aF14.103996327891512
aF14.103996325510028
aF14.103996325350895
aF14.10399632533976
aF14.103996325338283
aF14.103996325339228
aF14.103996325338283
aF14.104035160396105
aF14.103997374700448
aF14.103996367940503
aF14.103996327099626
aF14.103996325411316
aF14.103996325341846
aF14.103996325338542
aF14.103996325338251
aF14.103996325338251
aF315.67432626956884
aF14.100859002417572
aF14.099424752991766
aF14.095918482175296
aF14.095908490447872
aF14.09493326641072
aF14.094163468711116
aF14.090057506659956
aF14.08900697531169
aF14.085626834211805
aF14.083483240985064
aF14.081550430638917
aF14.078438456278697
aF14.075689960097726
aF14.069603365779606
aF14.062618955858198
aF14.054634191870829
aF14.059755207023247
aF14.051503639992365
aF14.047075354979086
aF14.043739204533605
aF14.04096347203766
aF14.037609068360094
aF14.032937233242897
aF14.022789984157502
aF14.022789984157502
aF18.135069885751815
aF14.022248221748239
aF14.022001474289997
aF14.021094453810619
aF14.017332046114767
aF14.017352134749366
aF14.017318438512124
aF14.01734509535721
aF14.017316979017753
aF14.017345088122578
aF14.017317885797468
aF14.017317044177162
aF14.017316987795908
aF14.01731698062964
aF14.017316979340386
aF14.017316979083922
aF14.017316979031076
aF14.017316979019768
aF14.01731697901825
aF14.01731697901722
aF14.017316979018243
aF14.017316979018194
aF14.017316979017544
aF14.01731697901722
aF14.017342838483096
aF14.01731697901722
aF209.12109706148877
aF14.013678038268445
aF14.010561570515712
aF14.001528040311552
aF14.001813267922657
aF13.998881016246308
aF13.997329354700291
aF13.992261720181194
aF13.988633422000714
aF13.983014303738102
aF13.976757259010057
aF13.97117428725305
aF13.964865629151621
aF13.960641805951344
aF13.958799211936256
aF13.957389298553363
aF13.955566665964035
aF13.953832530946205
aF13.952333477345103
aF13.950679884866432
aF13.948783478293056
aF13.946247791428174
aF13.942621474080084
aF13.939182234273268
aF13.934991054501406
aF13.934991054501406
aF13.99898584586866
aF13.934788816184184
aF13.934643997013389
aF13.934238450377485
aF13.934061990666383
aF13.934062195583646
aF13.934061999827385
aF13.934061991192184
aF13.93406199069683
aF13.934061990668273
aF13.934061990666258
aF13.934061990666223
aF13.93406199066725
aF13.934061990666041
aF13.934061990666613
aF13.934061990666041
aF13.934062195584676
aF13.934061999828536
aF13.934061991192753
aF13.934061990696971
aF13.93406199066838
aF13.93406199066634
aF13.934061990666429
aF13.934061990666379
aF13.934061990666041
aF13.934061990666041
aF317.490076000725
aF13.932173972460987
aF13.931178802397035
aF13.92693706606985
aF13.925936972323871
aF13.923668865932427
aF13.922911785729696
aF13.921267410033959
aF13.919962767185769
aF13.91894086422472
aF13.916384226421503
aF13.915138008960849
aF13.912844584819855
aF13.910539633139376
aF13.90626913910975
aF13.89891951143439
aF13.892586967699682
aF13.884809913581815
aF13.874202905535249
aF13.868706030563935
aF13.864070610358734
aF13.860301483983875
aF13.855639585631621
aF13.843717230739518
aF13.835427940377695
aF13.835427940377695
aF14.139681737259846
aF13.83282708241228
aF13.829386178153936
aF13.824256234627267
aF13.824263099179412
aF13.82425661151547
aF13.824256282776645
aF13.824256242222855
aF13.82425623587254
aF13.82425623483254
aF13.824256234661387
aF13.824256234633246
aF13.824256234628898
aF13.824256234628038
aF13.82425623462844
aF13.824256234627352
aF13.824256234627267
aF13.824256234627267
aF13.824256234627555
aF13.824256234627267
aF13.824256234627267
aF13.824256234627526
aF13.824256234627267
aF13.824256234627267
aF13.830512204927881
aF13.824256234627267
aF331.8794626377987
aF13.819299047162321
aF13.816990102108253
aF13.805791936102352
aF13.805180015575022
aF13.79876989071887
aF13.795268393466486
aF13.789824050219906
aF13.784590344649907
aF13.776502942280011
aF13.769067559986603
aF13.764914872137556
aF13.762687160489222
aF13.759854450991895
aF13.755451121959322
aF13.752003811092901
aF13.749681301100626
aF13.748886355384503
aF13.747975342762306
aF13.746764172627952
aF13.74558707902056
aF13.744262143105363
aF13.742788951512274
aF13.740753685353951
aF13.7380418702257
aF13.7380418702257
aF13.75969118296014
aF13.738042178625836
aF13.738030403589914
aF13.737927491884665
aF13.737728269961508
aF13.737742071734406
aF13.737553931744444
aF13.737577571264946
aF13.737551452139396
aF13.737578292427617
aF13.737552039504624
aF13.737551438999027
aF13.737551719718777
aF13.737551459636755
aF13.737551441755318
aF13.737551438999027
aF13.737578303849006
aF13.737552250042704
aF13.737551487002968
aF13.737551444290826
aF13.737551439901335
aF13.737551439178187
aF13.737551439036366
aF13.737551439006499
aF13.737551439000416
aF13.737551438999027
aF269.70510270729034
aF13.735880168845405
aF13.734679340092779
aF13.731808673553505
aF13.73104338245648
aF13.730037408153251
aF13.728736676140652
aF13.728166728049523
aF13.726908307078855
aF13.72584554662069
aF13.724256269945734
aF13.72275662278248
aF13.721154056543249
aF13.721728392385476
aF13.719564604172987
aF13.71655230393398
aF13.71349362983117
aF13.70955533962266
aF13.706343617879167
aF13.702474643252451
aF13.698849314011458
aF13.69352488593563
aF13.68916313349909
aF13.685069700785583
aF13.682919035329931
aF13.682919035329931
aF13.931391304950836
aF13.682838866224664
aF13.682525204604573
aF13.681512710865771
aF13.680366158134767
aF13.680384108253499
aF13.68036720572768
aF13.680366249565221
aF13.680366166436496
aF13.680366158891239
aF13.680366158203906
aF13.68036615814151
aF13.68036615813564
aF13.680366158134643
aF13.680366158134806
aF13.680366158134643
aF13.68222747181407
aF13.680374716260832
aF13.680366755560645
aF13.680366213491972
aF13.680366163414408
aF13.680366158639153
aF13.680366158182874
aF13.680366158139659
aF13.68036615813492
aF13.680366158134643
aF116.59405400415268
aF13.677983414262819
aF13.675137009780293
aF13.66970856872521
aF13.667132206170166
aF13.664032920971508
aF13.657643494140153
aF13.654993926331873
aF13.652431096747943
aF13.649306253674595
aF13.647212824708216
aF13.643120512018143
aF13.640070672869989
aF13.638443205761025
aF13.636680966460084
aF13.635137844828193
aF13.63338095709667
aF13.632401175077039
aF13.631766349913061
aF13.631026492612285
aF13.630205705286148
aF13.62911625183893
aF13.627575545478969
aF13.624887159833378
aF13.621490411313925
aF13.621490411313925
aF15.447651771308436
aF13.621174083025121
aF13.621039335032531
aF13.620538839208457
aF13.618485787257676
aF13.618505902440457
aF13.61848702461534
aF13.618485918354391
aF13.618485802177826
aF13.618485788969956
aF13.618485787454372
aF13.618485787279958
aF13.618485787260408
aF13.618485787258233
aF13.618485787257853
aF13.61848578725768
aF13.618485787257274
aF13.618485787257274
aF13.618485787257583
aF13.618485787257274
aF13.618485787257274
aF13.618485787258471
aF13.618485787257274
aF13.618485787257274
aF13.618485787257946
aF13.618485787257274
aF234.77982675203225
aF13.616653959016045
aF13.615236451081085
aF13.61239416927491
aF13.611819121055564
aF13.61082961638763
aF13.610090492717369
aF13.609651670853665
aF13.608788421413976
aF13.608982320809648
aF13.608006837564762
aF13.6066594702998
aF13.605678111933887
aF13.604192299995496
aF13.602806107430212
aF13.60090215948295
aF13.59762494522392
aF13.594938763853445
aF13.591634605973343
aF13.58659725677757
aF13.583427706254852
aF13.579598160505128
aF13.577432541237656
aF13.575406178861027
aF13.573153305438044
aF13.573153305438044
aF17.729264907191983
aF13.572716401209014
aF13.572581575338202
aF13.572087015821886
aF13.569686055488262
aF13.56958608670427
aF13.56959453665527
aF13.569586338368588
aF13.569586095342167
aF13.569586087001731
aF13.56958608671414
aF13.569586086704582
aF13.569586086704483
aF13.569586086704089
aF13.569586086703687
aF13.569586086704078
aF13.569586086703687
aF13.569586086703453
aF13.569586086705005
aF13.569586086704113
aF13.569586086703453
aF13.56962872708063
aF13.569586918451229
aF13.569586114554074
aF13.56958608765455
aF13.569586086703453
aF189.965950441362
aF13.568305815832272
aF13.567072657483195
aF13.563304255702864
aF13.561471202582407
aF13.559137427794795
aF13.554536086741809
aF13.552021112230005
aF13.549420993369978
aF13.5468158216846
aF13.544521722881182
aF13.542092386740979
aF13.539057521958583
aF13.537070886674368
aF13.535602553332541
aF13.534902756511759
aF13.533739213468152
aF13.533190609308793
aF13.532312330421124
aF13.531831217620478
aF13.531126477348131
aF13.529939148425068
aF13.528657497321959
aF13.526319524088702
aF13.524263076321756
aF13.524263076321756
aF16.035528260184638
aF13.524026359886243
aF13.52399597633006
aF13.523884707143011
aF13.523337153964174
aF13.523279094028876
aF13.523297745644161
aF13.523280287177727
aF13.523279231187281
aF13.523279111255402
aF13.523279096217266
aF13.52327909430765
aF13.523279094064556
aF13.523279094033217
aF13.523279094029736
aF13.523279094028865
aF13.523279094029547
aF13.523279094029018
aF13.523279094028936
aF13.523279094028865
aF13.523279094028865
aF145.71213487682982
aF13.522359890906909
aF13.52134351847057
aF13.519843463372936
aF13.519650256249403
aF13.51897444187182
aF13.518282008458176
aF13.517876847517353
aF13.517216485528582
aF13.517945602847117
aF13.51669150475309
aF13.516089156716326
aF13.515409800549463
aF13.51435043567842
aF13.512937788019947
aF13.510656260845543
aF13.507947890069367
aF13.504535467925471
aF13.497992612139278
aF13.49543110657082
aF13.491390846544778
aF13.488630978830358
aF13.486561758610499
aF13.484771709072383
aF13.481524607018052
aF13.481524607018052
aF18.13207053004257
aF13.481034451326881
aF13.480868794292554
aF13.48026354023989
aF13.477374788198741
aF13.477212022161627
aF13.477221564249412
aF13.47721238045704
aF13.477212038452038
aF13.477212022908901
aF13.477212022196202
aF13.477212022162892
aF13.477212022162323
aF13.47721202216156
aF13.47721202216156
aF13.477212022161154
aF13.477212022161474
aF13.477212022161154
aF13.477221564250694
aF13.477212380456969
aF13.477212038452343
aF13.477212022908837
aF13.477212022196415
aF13.477212022163314
aF13.477212022162142
aF13.477212022161154
aF147.7019466762569
aF13.47497139734752
aF13.472705069525041
aF13.469012412547784
aF13.467997342732385
aF13.466552591230407
aF13.463313096558846
aF13.460625895971013
aF13.455689457317789
aF13.457000786649804
aF13.453020142164672
aF13.449895889310177
aF13.447105019989653
aF13.44467371388804
aF13.44354057928079
aF13.441038727163772
aF13.440612626978488
aF13.439957790014706
aF13.439048216845126
aF13.4378726369163
aF13.437107376301537
aF13.436359067672313
aF13.435771110963746
aF13.434931556075554
aF13.43375152059916
aF13.43375152059916
aF13.496716567740116
aF13.43366478297802
aF13.433625155962151
aF13.433491960999888
aF13.433278078647565
aF13.433276643367748
aF13.433276718263706
aF13.433276643390816
aF13.433276643368014
aF13.433276643367748
aF13.433276643367748
aF13.433276643368053
aF13.433276643367748
aF13.433276643367748
aF13.433276643367886
aF13.433276643367748
aF13.433276643367748
aF13.433276643367812
aF13.433276643367748
aF13.433276643367748
aF13.4332766433679
aF13.433276643367748
aF13.433276643367748
aF13.433276643368114
aF13.433276643367748
aF13.433276643367748
aF190.83613942601318
aF13.432838874103329
aF13.43239112202206
aF13.431608920958809
aF13.431482387073945
aF13.431085244862459
aF13.430503633221658
aF13.430179531604256
aF13.42953382737575
aF13.429743877097053
aF13.429006403372306
aF13.428525159055518
aF13.427811273302261
aF13.426869142172418
aF13.425414541570628
aF13.423546869879711
aF13.420947278405993
aF13.418148527914294
aF13.4167000969546
aF13.414697560855387
aF13.413093194180831
aF13.41212597613158
aF13.410619153172362
aF13.408712650373342
aF13.407478981198512
aF13.407478981198512
aF14.152638977228278
aF13.407469138033303
aF13.407410166760641
aF13.40719063139171
aF13.406139900868212
aF13.406133418923567
aF13.40613338906682
aF13.40613338906682
aF118.30779724879893
aF13.404766988278038
aF13.403237756414462
aF13.401084435996978
aF13.400280235935167
aF13.399298232261348
aF13.396401305021595
aF13.394689051345992
aF13.392397277001425
aF13.389056643926025
aF13.387776201287743
aF13.385486629023529
aF13.383872910595752
aF13.38278669924457
aF13.382303764427249
aF13.381784027684276
aF13.38082714897407
aF13.38021864048413
aF13.37934657196232
aF13.379034858786962
aF13.378657005295263
aF13.378030754885494
aF13.377194880649828
aF13.376268696038302
aF13.375089845191713
aF13.375089845191713
aF13.427833864834614
aF13.375036983963902
aF13.375021968213964
aF13.374970184900999
aF13.374838617110754
aF13.374834237483896
aF13.374834384606707
aF13.37483423757995
aF13.374834237484322
aF13.374834237483896
aF13.374834237483896
aF13.374834237484485
aF13.374834237483896
aF13.374834237483896
aF13.374834237484336
aF13.374834237483896
aF13.374834237484144
aF13.374834237483896
aF13.374834237483896
aF13.374834237484311
aF13.374834237483896
aF13.374834237483896
aF13.374834237484535
aF13.374834237483896
aF13.374834237483896
aF13.374834237483896
aF257.99720591331067
aF13.374337741021048
aF13.373968188573862
aF13.373216237383481
aF13.37321564806529
aF13.37292910318671
aF13.372704501043412
aF13.37193572529976
aF13.372395551715734
aF13.371669802100673
aF13.371388051562747
aF13.370857959419425
aF13.370663017928713
aF13.3701071916112
aF13.369384288927908
aF13.368559810758349
aF13.36707058511367
aF13.369413685781133
aF13.3661550516318
aF13.364249037323944
aF13.362189909720179
aF13.361260832274017
aF13.359481224454608
aF13.35857411457761
aF13.357056224920228
aF13.357056224920228
aF13.399472371336095
aF13.356782012783338
aF13.356530580213636
aF13.355859960710173
aF13.355860966981403
aF13.355859989383934
aF13.355859961645212
aF13.355859960741629
aF13.355859960711737
aF13.35585996071011
aF13.355859960710056
aF13.355859960710486
aF13.355859960710713
aF13.355859960710504
aF13.355859960710056
aF13.355860098350494
aF13.355859961343153
aF13.355859960713023
aF13.355859960710003
aF13.355859960710287
aF13.355859960710003
aF13.355859960710003
aF13.355859960710244
aF13.355859960710003
aF13.355859960710003
aF13.355859960710003
aF264.03502735147276
aF13.355333718194842
aF13.354934950637727
aF13.353745463915867
aF13.353375911666216
aF13.35278155172617
aF13.350873956931714
aF13.34952533401487
aF13.346826997438558
aF13.345768424543333
aF13.344114734909336
aF13.343701245505887
aF13.342816605156294
aF13.341806393913135
aF13.340758555804726
aF13.340048243771303
aF13.339408092418306
aF13.338850262295683
aF13.33816294369516
aF13.337232218988433
aF13.336284972886059
aF13.335457844405127
aF13.334331090568472
aF13.333072446509675
aF13.33099695191411
aF13.33099695191411
aF14.025370131441914
aF13.330895102805261
aF13.330882448767603
aF13.33083432774188
aF13.330681729369857
aF13.330574104848171
aF13.33058034204802
aF13.330574280552469
aF13.330574110473133
aF13.330574105029157
aF13.330574104853838
aF13.330574104848324
aF13.330574104848143
aF13.33057410484772
aF13.33057410484848
aF13.330574104848097
aF13.33057410484772
aF13.330574199109549
aF13.330574109705136
aF13.330574105132424
aF13.33057410486499
aF13.330574104849422
aF13.330574104848463
aF13.330574104848587
aF13.33057410484772
aF13.33057410484772
aF199.1337148571829
aF13.329620605778626
aF13.328764427411837
aF13.32751158865155
aF13.327172067484042
aF13.326774088213913
aF13.325988839530961
aF13.325606743015783
aF13.32580468294968
aF13.325166718196307
aF13.32461124648395
aF13.324190578138985
aF13.323325657884585
aF13.322379382821882
aF13.321805281211976
aF13.320810427464675
aF13.320280272170052
aF13.319435506491704
aF13.318654463267471
aF13.317918190808307
aF13.317342549246522
aF13.316859704684617
aF13.316193884841365
aF13.31550226113671
aF13.31476855085797
aF13.31476855085797
aF13.474344079286794
aF13.314784452270864
aF13.314768539045712
aF13.314771046263736
aF13.314766203232484
aF13.314760936029813
aF13.314742008230894
aF13.314652475125857
aF13.314536559250627
aF13.314475216419332
aF13.314463766385757
aF13.314462243352722
aF13.314462233846061
aF13.314462238123397
aF13.314462233846236
aF13.314462233846054
aF13.314462233846054
aF13.314462233846587
aF13.314462233846054
aF13.314462233846054
aF13.314462233846374
aF13.31446223384593
aF13.31446223384593
aF13.314462233845973
aF13.314462233845862
aF13.314462233845862
aF237.59288187784904
aF13.314064257850436
aF13.31373186884333
aF13.312774932045613
aF13.312490317092536
aF13.312050038822793
aF13.311400853067052
aF13.311014923251374
aF13.310040532677824
aF13.310632114865232
aF13.309225099597715
aF13.30816089944782
aF13.307375204245588
aF13.306291620404629
aF13.305257880151583
aF13.304292052190352
aF13.303356482789606
aF13.302487092546837
aF13.301669717565385
aF13.300342984924516
aF13.299980017618417
aF13.299381975510965
aF13.29873227595612
aF13.297987005934925
aF13.297169177726825
aF13.297169177726825
aF13.327114311852153
aF13.297183652132869
aF13.297170073385928
aF13.297169293900826
aF13.297169195424832
aF13.29716918049834
aF13.297169178162399
aF13.297169177795492
aF13.297169177738546
aF13.2971691777282
aF13.297169177726971
aF13.297169177727266
aF13.297169177726875
aF13.297169177726971
aF13.297169177726825
aF13.297169177726825
aF13.297169177727312
aF13.297169177726825
aF13.297169177726825
aF13.297169177727191
aF13.297169177726825
aF100.15476010695235
aF13.296659923794323
aF13.296079167559327
aF13.295540123280546
aF13.295338012907369
aF13.295026995104141
aF13.294347292917227
aF13.293954538697768
aF13.294006189626327
aF13.293513336098194
aF13.292982910084742
aF13.29250896568832
aF13.291596074143381
aF13.290638728014276
aF13.289910624453096
aF13.289270024035414
aF13.28891638112982
aF13.288484903792568
aF13.287920228561763
aF13.287481524749687
aF13.287074836265273
aF13.28671665818473
aF13.285812714920393
aF13.284619388459639
aF13.282647324989401
aF13.282647324989401
aF14.931103864154178
aF13.282619461833487
aF13.282595613819488
aF13.282504672056188
aF13.282211952344156
aF13.281897975953125
aF13.281897730025076
aF13.281897726384805
aF13.281897726384805
aF229.29756764585977
aF13.280802127098198
aF13.279958197443051
aF13.278556850450787
aF13.278225546480112
aF13.277912305954992
aF13.277546131956175
aF13.277232558832868
aF13.276821401287627
aF13.276715477246327
aF13.275909263574334
aF13.275542989834438
aF13.274870672838304
aF13.27432049171001
aF13.273423634898649
aF13.272560838054329
aF13.271645118675973
aF13.269904434233837
aF13.269692848763906
aF13.26847035605823
aF13.266709888724506
aF13.265380821637265
aF13.26407314027987
aF13.26310760749336
aF13.262639084605766
aF13.262639084605766
aF14.4422424363899
aF13.262627016153964
aF13.262602719189495
aF13.262510825550034
aF13.262227753538998
aF13.261908105360526
aF13.261901415205383
aF13.26190101058043
aF13.26190101058043
aF166.25486847793982
aF13.261691239584732
aF13.261432052859782
aF13.260255281308222
aF13.259786203657093
aF13.258819371643007
aF13.25775884449006
aF13.257377277679762
aF13.25681381557306
aF13.25628194827246
aF13.255705716641124
aF13.255127962166188
aF13.254344609222198
aF13.254028234623647
aF13.253388881573922
aF13.253192594826455
aF13.252935739073596
aF13.252537854294967
aF13.252153979775755
aF13.251826691020767
aF13.251430017380379
aF13.250806034626866
aF13.249369029553897
aF13.247034662740887
aF13.242532367831416
aF13.242532367831416
aF14.905033979569989
aF13.242504315141367
aF13.242483998825382
aF13.24240647356719
aF13.242156090742643
aF13.241874810895194
aF13.241874320688503
aF13.2418743110178
aF13.2418743110178
aF176.53865077464084
aF13.23975658178248
aF13.237931437160512
aF13.236356412985902
aF13.235901178255002
aF13.235526230742838
aF13.235043717346372
aF13.234542094657673
aF13.234022575680214
aF13.233886172592417
aF13.232973936634394
aF13.232668624887776
aF13.232266502792601
aF13.232369895475223
aF13.232006662768896
aF13.231683376102055
aF13.231234497217049
aF13.230923474403802
aF13.23059818644704
aF13.229816086174392
aF13.22878014293255
aF13.227278366892726
aF13.225581213651434
aF13.223821328829754
aF13.222564772964656
aF13.222564772964656
aF13.679574263074397
aF13.222578309847076
aF13.222562709010266
aF13.222573983866422
aF13.222561849077437
aF13.222572705957614
aF13.222561145620467
aF13.222571071479702
aF13.222560226121434
aF13.222568582209014
aF13.222558744516341
aF13.222564588773235
aF13.222556246547303
aF13.222558214151917
aF13.22255205127134
aF13.222548270655306
aF13.22253320258838
aF13.22245945721479
aF13.222419974529501
aF13.222407543426556
aF13.222405766545435
aF13.222405730780885
aF13.222405737727374
aF13.222405730782246
aF13.222405730781603
aF13.222405730780885
aF205.6337325216742
aF13.221933442873205
aF13.221494964469105
aF13.2201295960744
aF13.219982952245047
aF13.219337673000833
aF13.219030284886792
aF13.218744603001984
aF13.218489513562023
aF13.218655531570896
aF13.218348996352624
aF13.218115610478602
aF13.217858638586918
aF13.217446390783444
aF13.216954672950834
aF13.216566003524836
aF13.216117363759398
aF13.215424369178589
aF13.215085865980829
aF13.214975635108463
aF13.214456017357872
aF13.214173201227176
aF13.213789882033659
aF13.213326703652577
aF13.212914065592205
aF13.212914065592205
aF13.738241787963606
aF13.212831640019026
aF13.2128224688867
aF13.212787497369312
aF13.212674994279592
aF13.212596017844742
aF13.212598452829518
aF13.212596046987041
aF13.212596018211393
aF13.212596017848927
aF13.212596017845481
aF13.212596017844614
aF13.212596017844614
aF13.21259601784465
aF13.212596017844469
aF13.212596017844852
aF13.212596017844469
aF13.212596017844469
aF13.21259601784433
aF13.21259601784433
aF13.212598452828395
aF13.21259604698757
aF13.212596018211695
aF13.212596017849059
aF13.21259601784562
aF13.21259601784433
aF170.36841792660607
aF13.212314621193915
aF13.212037448415465
aF13.211653831213962
aF13.211544223484402
aF13.211373444833043
aF13.210926564080218
aF13.21073421026037
aF13.210451351404313
aF13.209730492672712
aF13.209383074119941
aF13.209075179163026
aF13.207738127438049
aF13.206924369839214
aF13.205846885601844
aF13.204443613231245
aF13.203779030966935
aF13.20353420122952
aF13.202910668861485
aF13.20257410552594
aF13.20231491087426
aF13.201587041831296
aF13.200811987146434
aF13.20025723368645
aF13.19930012012485
aF13.19930012012485
aF13.205614675109835
aF13.19916393925465
aF13.199071332733364
aF13.198971026265372
aF13.198970569632358
aF13.198970569632358
aF196.11457549226222
aF13.198572371758122
aF13.198204798448362
aF13.197479324599428
aF13.197256230236235
aF13.196878063548446
aF13.196077360422994
aF13.19574846270709
aF13.19599273118963
aF13.195368368839695
aF13.194993841894092
aF13.19467342212539
aF13.19414290257011
aF13.194044551235088
aF13.193362847178243
aF13.19299220565635
aF13.192579399482998
aF13.192671042204491
aF13.192373157011687
aF13.192191441104363
aF13.192042675280057
aF13.191859985903776
aF13.19164809389331
aF13.191249859661305
aF13.190979296337105
aF13.190979296337105
aF13.32796170687698
aF13.190938926652773
aF13.190934521198276
aF13.190918067360187
aF13.19082674631331
aF13.190825309215843
aF13.19082531836678
aF13.190825309216304
aF13.190825309215814
aF13.190825309215814
aF13.190825309216514
aF13.190825309215814
aF13.190825309215814
aF13.190825309216098
aF13.190825309215814
aF13.190825309214961
aF13.190825309215338
aF13.190825309214961
aF13.190825309214961
aF13.190825309216123
aF13.190825309214961
aF13.190825309214961
aF13.190825309215644
aF13.190825309214961
aF13.190825309214961
aF13.190825309214961
aF269.89218808841395
aF13.190708385982688
aF13.190616618377607
aF13.190209039576132
aF13.19019164235922
aF13.190000453177142
aF13.189842964593275
aF13.189697275984141
aF13.189388549637712
aF13.189093229860433
aF13.188614708922973
aF13.188256813795363
aF13.18762374862014
aF13.186700280464848
aF13.18538650675075
aF13.18380981383645
aF13.182439525295727
aF13.181255529801891
aF13.180674369329704
aF13.179661835942852
aF13.178921669009977
aF13.178167887935022
aF13.177665221962851
aF13.177124904764256
aF13.175889432863997
aF13.175889432863997
aF13.176972984477967
aF13.175263405775723
aF13.175791511075431
aF13.175147286982913
aF13.175163678051177
aF13.17514672223647
aF13.175163741217265
aF13.17514735388582
aF13.175146782270563
aF13.175146731804912
aF13.17514672404236
aF13.175146722591137
aF13.175146722306483
aF13.175146722251021
aF13.175146722238708
aF13.175146722237194
aF13.175146722236054
aF13.175146722237677
aF13.175146722236821
aF13.17514672223653
aF13.175146722236054
aF13.175192855941212
aF13.175148027842017
aF13.175146851401795
aF13.175146742589117
aF13.175146722236054
aF263.4560088948178
aF13.1745862426705
aF13.174234379539826
aF13.17328497221786
aF13.17312974392592
aF13.1726524529812
aF13.17211396149419
aF13.171554659178966
aF13.170836371879545
aF13.170908069511196
aF13.17031657215163
aF13.169804701340308
aF13.169537025167198
aF13.168885086828631
aF13.168576694839896
aF13.168195329616786
aF13.167984932196436
aF13.167743825973059
aF13.167639008641473
aF13.167524250537713
aF13.167377704318035
aF13.167174887693179
aF13.166824811476332
aF13.166610128581858
aF13.16654149784399
aF13.16654149784399
aF13.1676379564026
aF13.166443400382803
aF13.166402697389444
aF13.166408174209629
aF13.166398475942387
aF13.166407957624859
aF13.166397945199133
aF13.1664079678892
aF13.166398268659293
aF13.166397968382068
aF13.166397948314728
aF13.166397945770033
aF13.166397945312873
aF13.166397945222013
aF13.16639794520393
aF13.166397945199009
aF13.166397945202519
aF13.166397945201222
aF13.166397945199908
aF13.166397945199009
aF13.166407929182839
aF13.16639822785606
aF13.16639795830304
aF13.166397946119265
aF13.166397945313538
aF13.166397945199009
aF197.48951821764075
aF13.166335557823679
aF13.166264242083557
aF13.165971299944264
aF13.166155484380525
aF13.16592283349631
aF13.16585981133543
aF13.165657029826214
aF13.165678284486198
aF13.165557631491872
aF13.165372687433504
aF13.165067348999845
aF13.164665998551772
aF13.164132692224367
aF13.163084684071027
aF13.162140044439429
aF13.161348515969468
aF13.159780998878482
aF13.15845921556324
aF13.157484527443586
aF13.155894542868328
aF13.155403598684579
aF13.155054386234053
aF13.15464801746344
aF13.154194763804153
aF13.154194763804153
aF13.177851158368973
aF13.154174552673105
aF13.154041797565359
aF13.15358666563301
aF13.153593224158069
aF13.153581404604573
aF13.15359535088757
aF13.153580918607677
aF13.153595379895332
aF13.153581454679138
aF13.153580969542578
aF13.15358092672589
aF13.153580920139852
aF13.153580918908357
aF13.153580918667306
aF13.153580918619554
aF13.153580918609812
aF13.15358091860844
aF13.153580918608558
aF13.153580918608032
aF13.153580918608391
aF13.153580918608423
aF13.153580918607677
aF13.153580918607677
aF13.153580918608206
aF13.153580918607677
aF241.496260579432
aF13.15325787246757
aF13.153018767486085
aF13.152320099459264
aF13.152117735489991
aF13.151680515093535
aF13.15114224418899
aF13.150718281540087
aF13.150384546144927
aF13.14984919170989
aF13.149467536508155
aF13.148867951445602
aF13.148758340037777
aF13.14854135994841
aF13.148487651182737
aF13.148426685137771
aF13.148290337090675
aF13.148065181591885
aF13.147839444197796
aF13.147572629946612
aF13.147433709838811
aF13.147244086334318
aF13.147091172613035
aF13.146863981828762
aF13.146463661954517
aF13.146463661954517
aF13.211500399489609
aF13.146475672563252
aF13.146464425595124
aF13.14646375586803
aF13.14646367493728
aF13.146463663781237
aF13.146463662212511
aF13.1464636619915
aF13.146463661959583
aF13.146463661955455
aF13.146463661955487
aF13.146463661954886
aF13.146463661955277
aF13.146463661954517
aF13.146463661954517
aF13.146463661955028
aF13.146463661954517
aF13.146463661954517
aF13.146463661954517
aF13.146463661954517
aF13.146463661954517
aF239.2148561113279
aF13.146224111010458
aF13.146032161595826
aF13.14573360152696
aF13.145732723277625
aF13.145620268585748
aF13.145506210221495
aF13.145411447546014
aF13.145224864615397
aF13.144912861975008
aF13.144572475094233
aF13.144301850602496
aF13.143703831351086
aF13.143274709331184
aF13.142731337497523
aF13.142118992621128
aF13.141708186435043
aF13.141111496844985
aF13.14051020907257
aF13.140194029946873
aF13.139803846742051
aF13.139571479481525
aF13.139150365360805
aF13.13891873383723
aF13.13863624632269
aF13.13863624632269
aF14.056079489936756
aF13.138633061493877
aF13.138625944702891
aF13.138599548379492
aF13.138401614919967
aF13.138381039409516
aF13.138380166398797
aF13.138380143813173
aF13.138380143813173
aF214.33614109239195
aF13.138236462593856
aF13.138095358528052
aF13.137703491075357
aF13.13765567810145
aF13.137434043964937
aF13.137124915335363
aF13.137004434511123
aF13.136960975680733
aF13.136900363710666
aF13.13657652683851
aF13.136390870339415
aF13.13620349799362
aF13.136054697804443
aF13.136442945195913
aF13.135958124230466
aF13.135872008076202
aF13.135732209563773
aF13.135513629962723
aF13.135275210974022
aF13.135098534569924
aF13.13489379576005
aF13.134774535561853
aF13.13459984825871
aF13.134406304675949
aF13.134406304675949
aF13.164071684757406
aF13.134418238365352
aF13.134406897320769
aF13.13440637750766
aF13.134406316926619
aF13.134406306889648
aF13.134406305080866
aF13.134406304749756
aF13.134406304688131
aF13.134406304677707
aF13.13440630467575
aF13.134406304676908
aF13.13440630467625
aF13.134406304675725
aF13.13440630467656
aF13.1344063046758
aF13.134406304675725
aF13.134406075788718
aF13.13439796014309
aF13.13436121603364
aF13.134293731011581
aF13.13425371473041
aF13.134247796719539
aF13.134247056621529
aF13.134247042179567
aF13.134247042179567
aF328.43857304620565
aF13.134018208169142
aF13.133905790461089
aF13.133523426932726
aF13.13349740991151
aF13.133337236127758
aF13.13320199501938
aF13.133038092941295
aF13.132864973609145
aF13.132751196830647
aF13.13231761012132
aF13.132084043318326
aF13.131619551871935
aF13.13106423941737
aF13.130469960903472
aF13.12943861398118
aF13.129022167211396
aF13.128709566116044
aF13.128379492932897
aF13.128109079126851
aF13.12777146671743
aF13.127460037130419
aF13.127187066683568
aF13.126932648548514
aF13.126336318489386
aF13.126336318489386
aF13.548931973524414
aF13.126347093440376
aF13.126334147123913
aF13.126344827836377
aF13.126333567883922
aF13.126344300723243
aF13.126333404171714
aF13.126343844893885
aF13.126333323263072
aF13.126343225217756
aF13.126333140107445
aF13.126342160257217
aF13.126332681648513
aF13.126340289141876
aF13.126331725673161
aF13.126337134587583
aF13.126329949575403
aF13.126332062756546
aF13.126326860363893
aF13.126324235345074
aF13.126312517338228
aF13.12623228012238
aF13.126238432374596
aF13.126232527078379
aF13.126232292290045
aF13.12623228012238
aF222.22418888678368
aF13.125824021598689
aF13.125526293570204
aF13.125116281873797
aF13.124977625675108
aF13.124820781890325
aF13.124512863862961
aF13.124401416270064
aF13.124361031171155
aF13.124114255698789
aF13.12393206212369
aF13.123712145389032
aF13.124200374562015
aF13.123619644411416
aF13.123572063270949
aF13.123470671210317
aF13.12338043331475
aF13.123156416644353
aF13.122963867421056
aF13.122751118153339
aF13.122500446185466
aF13.122395711764312
aF13.122390488084196
aF13.12233195046483
aF13.122163218866262
aF13.122163218866262
aF13.148288286746723
aF13.12217369192756
aF13.122163910198225
aF13.122163294961311
aF13.122163227846833
aF13.122163219934677
aF13.122163218992217
aF13.122163218880871
aF13.122163218867342
aF13.12216321886541
aF13.122163218865875
aF13.122163218865992
aF13.12216321886541
aF13.122166262997478
aF13.122163444602045
aF13.122163251346208
aF13.12216322462497
aF13.122163219935
aF13.12216321906513
aF13.122163218902717
aF13.12216321887325
aF13.12216321886714
aF13.122163218866223
aF13.122163218866074
aF13.122163218865598
aF13.12216321886541
aF219.7286441492236
aF13.12207143174519
aF13.121984771823932
aF13.121732032421832
aF13.121665004360278
aF13.121565448963562
aF13.121348761072706
aF13.121173359828262
aF13.12088390708994
aF13.121139574127042
aF13.120704030753835
aF13.1204570749182
aF13.120188809376184
aF13.119738814374564
aF13.11922133414756
aF13.118692714363426
aF13.11832676229291
aF13.117974755538768
aF13.117638157050333
aF13.117375328263574
aF13.117307119654726
aF13.117167850915152
aF13.11698200356297
aF13.116656460393521
aF13.116395613480961
aF13.116395613480961
aF14.397359995318276
aF13.116381334819465
aF13.116377919696923
aF13.116365305274208
aF13.116263499096977
aF13.116250073536836
aF13.116248971389759
aF13.116248939850653
aF13.116248939850653
aF402.82497857858607
aF13.115665485487991
aF13.115490646816632
aF13.114222585279652
aF13.114557529282951
aF13.114076730348913
aF13.11395330696433
aF13.113765154864506
aF13.113669178327665
aF13.113548499756916
aF13.113630138880282
aF13.113426035191331
aF13.113304866883954
aF13.113361911352587
aF13.113219889244935
aF13.113047941501303
aF13.112915185967736
aF13.112805183580136
aF13.112710721631753
aF13.112600283610792
aF13.11246279453734
aF13.112327418453184
aF13.112185378537742
aF13.112078415376377
aF13.11198348499515
aF13.11198348499515
aF13.232390327525135
aF13.111995886493563
aF13.111984144927842
aF13.111983569119445
aF13.111983498697644
aF13.111983487339138
aF13.111983485398877
aF13.111983485065277
aF13.11198348500708
aF13.111983484997296
aF13.111983484995541
aF13.111983484995218
aF13.111983484995132
aF13.111983484994937
aF13.111983484995388
aF13.111983484994937
aF13.11199639287305
aF13.11198423802184
aF13.111983580234703
aF13.111983499170929
aF13.111983487163048
aF13.111983485328292
aF13.11198348504647
aF13.111983485002892
aF13.111983484996873
aF13.111983484994937
aF261.4931490393123
aF13.111939184184227
aF13.111902247323446
aF13.111784773701125
aF13.111760620334085
aF13.111523832005577
aF13.111469150445885
aF13.111321247690512
aF13.111285338234701
aF13.111127346499593
aF13.111012843181381
aF13.110780995374977
aF13.110406425761848
aF13.109737448240956
aF13.109965982120269
aF13.109408829419053
aF13.108955612595508
aF13.108717372551194
aF13.108441903366987
aF13.108131745325508
aF13.107849296375186
aF13.107744626358954
aF13.107601417030601
aF13.107453317718381
aF13.107109864647693
aF13.107109864647693
aF13.121066070990274
aF13.10711346513094
aF13.107105598474295
aF13.107061120737988
aF13.106966180129646
aF13.106831174821174
aF13.106832076944617
aF13.106831180685216
aF13.10683117485885
aF13.106831174821188
aF13.106831174821217
aF13.106831174821547
aF13.106831174821174
aF13.106831174821174
aF13.10683117482089
aF13.10683117482089
aF13.10683117482089
aF13.106831174821426
aF13.10683117482089
aF13.10683117482089
aF13.106831174820854
aF13.106831174820854
aF13.106831174820854
aF13.106831174820854
aF13.106831174820854
aF13.106831174820854
aF227.72790239871944
aF13.106641632892046
aF13.106484810677763
aF13.106286447067376
aF13.10623654916099
aF13.106149613549636
aF13.105986925549459
aF13.105792798652008
aF13.105586925344603
aF13.105604269446147
aF13.105456498416526
aF13.105326104867562
aF13.105392964118234
aF13.10523289469199
aF13.105117493406173
aF13.105046838429452
aF13.105045630436884
aF13.104936218470044
aF13.104863471567658
aF13.104806809743714
aF13.104722862659003
aF13.104535709024823
aF13.104322358335413
aF13.104120863622867
aF13.103924475132636
aF13.103924475132636
aF13.128368012163449
aF13.10393482165782
aF13.103925161306865
aF13.103924553676993
aF13.103924484873861
aF13.10392447635401
aF13.1039244752853
aF13.103924475152532
aF13.103924475134807
aF13.103924475133727
aF13.103924475133404
aF13.103924475132626
aF13.103924475133173
aF13.103924475132626
aF13.103924475132647
aF13.103924475132626
aF13.103924475132626
aF13.103924475132516
aF13.103924475132516
aF13.103924475132516
aF13.103924475132516
aF373.7162197091047
aF13.103700778851206
aF13.103639032144411
aF13.103215873567962
aF13.10327573692016
aF13.10311489205229
aF13.103045721177097
aF13.10297976475692
aF13.10300181217849
aF13.102915889262121
aF13.102863929954292
aF13.10275103080006
aF13.102613318127485
aF13.102334015289557
aF13.101999286448628
aF13.101775101411985
aF13.101342092527887
aF13.10108006725871
aF13.10077960456973
aF13.100262873494117
aF13.10004539485556
aF13.099898557091812
aF13.099791990467594
aF13.099652849987358
aF13.099437333821815
aF13.099437333821815
aF13.198320709939427
aF13.099449474841549
aF13.09943761078307
aF13.099437328812463
aF13.09943746140107
aF13.099437338919074
aF13.099437330200981
aF13.099437328812463
aF13.099440928253841
aF13.099435609577814
aF13.099435581291882
aF13.099431745484619
aF13.0994261629607
aF13.099410911430041
aF13.09934128766692
aF13.09924920164665
aF13.099239568610457
aF13.099238724727797
aF13.099238652606065
aF13.099238652606065
aF275.34051798487536
aF13.099161575654264
aF13.09911445978582
aF13.099027314729547
aF13.099049774843294
aF13.098990939869516
aF13.098943101906823
aF13.098811850548941
aF13.098651561271204
aF13.098615080468289
aF13.098395241341898
aF13.098290805300728
aF13.098247511233836
aF13.098188085044146
aF13.098965759190463
aF13.098162551519678
aF13.098149321632523
aF13.098072569597292
aF13.097930125989368
aF13.097782369148558
aF13.097615054931588
aF13.097309273515034
aF13.097048740795294
aF13.09683256801491
aF13.096686182079452
aF13.096686182079452
aF13.16059765566079
aF13.096697836597688
aF13.096686824144491
aF13.096686264719388
aF13.096686195423775
aF13.096686184330569
aF13.096686182461827
aF13.096686182143848
aF13.09668618209017
aF13.096686182080084
aF13.096686182078486
aF13.09668618208114
aF13.096686182079775
aF13.096686182078578
aF13.096686182078486
aF13.096712378179095
aF13.09668601399035
aF13.096688476428465
aF13.096684447207505
aF13.096681588832357
aF13.096669142485243
aF13.096617555231255
aF13.096547406797168
aF13.096556183157645
aF13.096547887506372
aF13.096547406797168
aF97.98819437813796
aF13.09636175138165
aF13.096131839808084
aF13.095879829604456
aF13.09584979899661
aF13.095784852364769
aF13.095715488378179
aF13.095647665589414
aF13.095584436849759
aF13.0953750112769
aF13.095219940342098
aF13.094983835331995
aF13.094797568317635
aF13.094599867580119
aF13.094348873721081
aF13.094029485279723
aF13.093512044901658
aF13.093030290565974
aF13.092729446735326
aF13.092652407396287
aF13.09253862988377
aF13.092377873660567
aF13.092131892088574
aF13.091729735479259
aF13.091425633351669
aF13.091425633351669
aF13.732775549077687
aF13.091337127693553
aF13.091327108528525
aF13.091289017646101
aF13.091071213381273
aF13.091079661608507
aF13.091071607292704
aF13.091071237565565
aF13.091071214892448
aF13.091071213475793
aF13.091071213387476
aF13.091071213381053
aF13.091071213381504
aF13.091071213381202
aF13.091071213381053
aF13.091079661608493
aF13.09107160729291
aF13.091071237564737
aF13.091071214892988
aF13.091071213475722
aF13.091071213387107
aF13.091071213381717
aF13.091071213381408
aF13.091071213381024
aF13.091071213381024
aF13.091071213381024
aF295.80486182005154
aF13.090945685689988
aF13.090856836505143
aF13.090388492858956
aF13.09050089079382
aF13.090348698243108
aF13.090299708882778
aF13.090209870269316
aF13.090309836336473
aF13.090171574187753
aF13.090104730620983
aF13.089989155466409
aF13.089874585552188
aF13.08977738526615
aF13.089551999385957
aF13.089420555635598
aF13.08937584782253
aF13.089603429341476
aF13.089352264925171
aF13.089358747760961
aF13.089336552414867
aF13.08931806876922
aF13.089394347610153
aF13.08928043831326
aF13.089216564373139
aF13.089216564373139
aF13.095901848710042
aF13.089224925653923
aF13.089217136216941
aF13.089216624745987
aF13.089216571102785
aF13.089216565128734
aF13.089216564459026
aF13.089216564383094
aF13.089216564373984
aF13.089216564373764
aF13.089216564373668
aF13.08921656437363
aF13.089216564373139
aF13.089216564373139
aF13.089216564373334
aF13.089216564373139
aF13.089216564373139
aF13.089216564373139
aF13.089216564373139
aF13.089216564373139
aF13.089216564373139
aF223.4452705352971
aF13.08916873408327
aF13.089123241419866
aF13.088886836450516
aF13.08880689765386
aF13.08877995058944
aF13.088699517406202
aF13.088584033690715
aF13.088329063387132
aF13.087950202637558
aF13.0874137715115
aF13.08719782132285
aF13.086962955137412
aF13.086733313547757
aF13.086448326303717
aF13.086306159695578
aF13.086294036480865
aF13.086229882732002
aF13.086119252926885
aF13.08577301344696
aF13.085124669666584
aF13.08458689924592
aF13.083938628595213
aF13.083264266520267
aF13.081930371647594
aF13.081930371647594
aF14.083915516242662
aF13.081922993158233
aF13.081920748679039
aF13.081912812780118
aF13.08184762156349
aF13.08182910278546
aF13.08182415396081
aF13.081823746679884
aF13.081823726013827
aF13.081823726013827
aF328.9648205144323
aF13.081410422124844
aF13.081175743835026
aF13.080194151912934
aF13.079893504038509
aF13.079462014904397
aF13.079148256448953
aF13.078700088136017
aF13.078329689399038
aF13.078460733525791
aF13.07819738631057
aF13.078028866492385
aF13.077958398400174
aF13.077897992872042
aF13.077806550560236
aF13.077705528028623
aF13.07760660933349
aF13.07748266260776
aF13.077425368120618
aF13.077356192115541
aF13.077348764970477
aF13.077353241932641
aF13.077334262923653
aF13.077312265488015
aF13.077282803507828
aF13.077282803507828
aF13.176557416541957
aF13.077293972147018
aF13.077282773718302
aF13.077283820436644
aF13.077280870309462
aF13.07727568104833
aF13.07726047236985
aF13.07719282999297
aF13.077106590409016
aF13.077066170800048
aF13.077058698658831
aF13.077057690085208
aF13.077057684025554
aF13.077057684025554
aF289.6287069230914
aF13.077013410902847
aF13.07699270151279
aF13.076927889705814
aF13.076899479229006
aF13.076861165248161
aF13.076776827625107
aF13.076656728483101
aF13.076505891955204
aF13.076334872171227
aF13.076264373879784
aF13.076174655786076
aF13.076060391853265
aF13.075861754172376
aF13.075609507304026
aF13.075330980107097
aF13.075102288307871
aF13.074806552697748
aF13.074268921149443
aF13.073698744223584
aF13.073351332646062
aF13.073050322298855
aF13.072845346037226
aF13.072622606492263
aF13.07213508984357
aF13.07213508984357
aF13.074278083862122
aF13.072006790386002
aF13.071749499746097
aF13.071742454782818
aF13.071742571257548
aF13.07174245487067
aF13.071742454783376
aF13.07174245478232
aF13.07174245478232
aF13.071742454782942
aF13.07174245478232
aF13.07174245478232
aF13.071742454782928
aF13.07174245478232
aF13.07174245478232
aF13.071742454783017
aF13.07174245478232
aF13.07174245478232
aF13.0717424547829
aF13.07174245478232
aF13.07174245478232
aF13.071742454783102
aF13.07174245478232
aF13.07174245478232
aF13.071758218522525
aF13.07174245478232
aF298.02974941910685
aF13.071545189059151
aF13.071417328261042
aF13.071035052011503
aF13.070960254368245
aF13.070784943582009
aF13.070364027117716
aF13.070167804319087
aF13.069978998420439
aF13.069829350833434
aF13.069746276375092
aF13.069629373016031
aF13.069500150295049
aF13.069401258302591
aF13.069304214751362
aF13.069275482826061
aF13.069200411830785
aF13.069155221490394
aF13.069103875239527
aF13.069099810109567
aF13.06906556248769
aF13.069027251049189
aF13.069004835960751
aF13.068954045251505
aF13.068895042027368
aF13.068895042027368
aF13.346166988712628
aF13.068905873361384
aF13.068894815140212
aF13.068906945884702
aF13.068895287417494
aF13.068894862922473
aF13.06889482293058
aF13.068894816605091
aF13.068894815424969
aF13.068894815196437
aF13.068894815151587
aF13.068894815142887
aF13.068894815140823
aF13.068894815140535
aF13.068894815140364
aF13.068894815140577
aF13.068894815140318
aF13.068894815140212
aF13.068894815140212
aF13.068894815140649
aF13.068894815140212
aF13.068894815140212
aF13.068894815140741
aF13.25455442775051
aF13.068905919964454
aF13.068894815140212
aF267.873144556466
aF13.068835599163773
aF13.068784279721495
aF13.068600387522288
aF13.068608427674782
aF13.068571486827086
aF13.068536872330611
aF13.068410306221814
aF13.068346762492716
aF13.068299827203717
aF13.06819013409348
aF13.068072113163218
aF13.067793345588072
aF13.067615599172154
aF13.067590791838729
aF13.06725947369651
aF13.067083850471622
aF13.066988057549203
aF13.066929146218119
aF13.066864566029366
aF13.06669382171242
aF13.06653769170397
aF13.066353776535372
aF13.066057727683805
aF13.065876344931588
aF13.065876344931588
aF13.20391622059799
aF13.065887434760342
aF13.0658767317579
aF13.065876376571243
aF13.065876349599492
aF13.06587634580886
aF13.065876345106581
aF13.065876344969478
aF13.06587634493896
aF13.065876344933933
aF13.06587634493265
aF13.065876344932594
aF13.065876344932228
aF13.065876344932104
aF13.06587634493168
aF13.065876344931588
aF13.065876344931588
aF13.065876344931588
aF13.065876344931588
aF13.065876344931588
aF13.065876344931588
aF295.5101038610285
aF13.065837530660051
aF13.065815067326078
aF13.065759307031843
aF13.06579264510983
aF13.065722275390105
aF13.065687988811089
aF13.065672740964246
aF13.065538767744048
aF13.06539376494721
aF13.065323623095821
aF13.065278465309053
aF13.065242182044852
aF13.065174969725192
aF13.06512645108635
aF13.065156675363717
aF13.065120277317977
aF13.065130236634872
aF13.0651105347062
aF13.06519483905019
aF13.065079908109837
aF13.065126034857375
aF13.065072429557937
aF13.065145150135393
aF13.065070060804715
aF13.065070060804715
aF13.279200536650023
aF13.06508079202035
aF13.065069758153797
aF13.065077823819056
aF13.065069567897172
aF13.065077197513471
aF13.06506922865048
aF13.065076092313681
aF13.065068570135562
aF13.065074153231485
aF13.065067356909204
aF13.065070891402506
aF13.065065235783166
aF13.065065634749079
aF13.065061659500852
aF13.065057479521116
aF13.065045252144628
aF13.064985394061083
aF13.064967313034167
aF13.064962915124948
aF13.064962339951858
aF13.064962343212503
aF13.064962339971789
aF13.064962339952146
aF13.064962339952519
aF13.064962339951858
aF284.8677543947694
aF13.064946228103903
aF13.064932775241385
aF13.064871199585308
aF13.064850449633138
aF13.06481413930878
aF13.064761538562891
aF13.064666720672072
aF13.064549743524978
aF13.064405519821896
aF13.06429766905963
aF13.064162862401236
aF13.063972526701583
aF13.063580778045026
aF13.063899023575274
aF13.063426024754559
aF13.063147705256267
aF13.062996025739281
aF13.062809786682141
aF13.062496952096083
aF13.062021166360942
aF13.061591583262775
aF13.061372441869455
aF13.061187407160666
aF13.061003990502552
aF13.061003990502552
aF13.280712813916345
aF13.061013084718986
aF13.061002433999604
aF13.06100414651856
aF13.061000144429993
aF13.060998144302832
aF13.060987977945931
aF13.060930226871303
aF13.060848101529118
aF13.060756349703105
aF13.060753976260806
aF13.060753767806396
aF13.060753767806396
aF305.4937274213441
aF13.060564770456434
aF13.060445995090529
aF13.060099767216677
aF13.060104416654145
aF13.060009299510583
aF13.059957360035096
aF13.059838121719025
aF13.059771076490609
aF13.059972147899014
aF13.05973025188031
aF13.059675783311302
aF13.059610092934403
aF13.05947487569237
aF13.059349038223544
aF13.059221228313316
aF13.059150175326021
aF13.05913399347396
aF13.059124986136045
aF13.059121108560198
aF13.059092412942352
aF13.05904232646007
aF13.058998816763708
aF13.058957375663326
aF13.05893184041868
aF13.05893184041868
aF13.059794353629613
aF13.058919740758046
aF13.058922591945691
aF13.058919977694831
aF13.058919764972032
aF13.058919743289561
aF13.058919741023256
aF13.058919740786
aF13.058919740761723
aF13.058919740758014
aF13.058919740758462
aF13.058919740758359
aF13.058919740758014
aF13.058922591945262
aF13.058919977694881
aF13.058919764972885
aF13.058919743290087
aF13.058919741023239
aF13.058919740785985
aF13.058919740761162
aF13.05891974075773
aF13.058919740759947
aF13.058919740758437
aF13.058919740759166
aF13.05891974075773
aF13.05891974075773
aF281.70541780062615
aF13.058911701204256
aF13.05890754010926
aF13.058920297534812
aF13.058896126131131
aF13.05891157100077
aF13.058884340396826
aF13.058875643004185
aF13.058853090738776
aF13.058803445709188
aF13.0586886144943
aF13.058618336926571
aF13.05844086912866
aF13.058251500417157
aF13.05805237205097
aF13.057974185916699
aF13.057831670388243
aF13.057629577373959
aF13.057383136720247
aF13.056956820772687
aF13.05680371217085
aF13.056637146413703
aF13.056477270539812
aF13.056317850395882
aF13.056054006828145
aF13.056054006828145
aF13.071946973203485
aF13.056022736162216
aF13.056013223446389
aF13.05598318736046
aF13.055928695496917
aF13.055924318788058
aF13.055924597557869
aF13.055924319422424
aF13.05592431878959
aF13.055924318788588
aF13.055924318788058
aF13.055924318788058
aF13.055924318787945
aF13.055924318787945
aF13.055924318787945
aF13.055924318788424
aF13.055924318787945
aF13.055924318787945
aF13.055924318788335
aF13.055924318787945
aF13.055924318787945
aF13.055924318787255
aF13.055924318787255
aF13.055925152371646
aF13.055924321185785
aF13.055924318787255
aF217.99181867882524
aF13.05576963228221
aF13.055632158465158
aF13.055367690956867
aF13.055383292285711
aF13.05531473438906
aF13.05529473912403
aF13.055277261587797
aF13.055265634764876
aF13.055339335066996
aF13.055237635528371
aF13.055213464069919
aF13.055158466197106
aF13.055054669485479
aF13.054973278753124
aF13.054959270206805
aF13.054933740027323
aF13.054944448630383
aF13.054931128627604
aF13.054932511740407
aF13.05492132492552
aF13.054903939758304
aF13.05490943685485
aF13.054881287194288
aF13.054850701109888
aF13.054850701109888
aF13.074969071785485
aF13.05485742018924
aF13.05485107097632
aF13.05485072846517
aF13.054850703182328
aF13.054850701267661
aF13.054850701122046
aF13.054850701111643
aF13.054850701111313
aF13.054850701110375
aF13.054850701109888
aF13.054850701109888
aF13.054850701110585
aF13.054850701109888
aF13.054850701109888
aF13.054850701110595
aF13.054850701109888
aF13.054850701109888
aF13.054850701110638
aF13.054850701109888
aF13.054850701109888
aF277.74235891257024
aF13.054824595828094
aF13.054804355772443
aF13.054705926667108
aF13.054689341401222
aF13.05468078955272
aF13.05466441232149
aF13.05463731761219
aF13.054590557739953
aF13.054425232033388
aF13.054345706865377
aF13.054047148346626
aF13.053924428655417
aF13.053798210576296
aF13.053660376992898
aF13.05348118600254
aF13.053249087613835
aF13.053089867331366
aF13.052936705745697
aF13.052630335056286
aF13.052233190745302
aF13.051552789836506
aF13.050836868834775
aF13.050206347601044
aF13.049761530648361
aF13.049761530648361
aF13.480535527504507
aF13.04975829822833
aF13.049734108677537
aF13.049643938709906
aF13.049142150860149
aF13.049131084277004
aF13.049131346189977
aF13.04913108476513
aF13.049131084277484
aF13.049131084276322
aF13.049131084276322
aF13.049131084275942
aF13.04913108427704
aF13.049131084275942
aF13.049219120642725
aF13.049131147775615
aF13.049131084398073
aF13.049131084276983
aF13.049131084276041
aF13.049131084275942
aF13.049131084275942
aF13.049131084276567
aF13.049131084275942
aF13.049131084275942
aF13.049131084276386
aF13.049131084275942
aF161.08365737058494
aF13.048893493171665
aF13.048633866927297
aF13.048241930813838
aF13.048257889183368
aF13.048122915183882
aF13.047958700467586
aF13.047692107890708
aF13.047795390494915
aF13.04760800743502
aF13.047564297831748
aF13.047548623180223
aF13.047559241833756
aF13.047546765662833
aF13.047645446743811
aF13.047542840766067
aF13.047638858465
aF13.047536382705893
aF13.04758227412906
aF13.047529583319594
aF13.047711482598078
aF13.047525070243175
aF13.04758542725315
aF13.047515480460113
aF13.047555607340101
aF13.047515480460113
aF13.055179371242208
aF13.047521116237146
aF13.047515773733661
aF13.047515499879381
aF13.047515481768627
aF13.04751548054939
aF13.047515480467226
aF13.04751548046183
aF13.047515480461623
aF13.047515480460113
aF13.047515480460113
aF13.047515480460426
aF13.047515480460113
aF13.047515480460582
aF13.047515480460113
aF13.047515480460113
aF13.047515480460113
aF13.047515480460113
aF13.047515480460113
aF13.047515480460113
aF13.047515480460113
aF158.89181012238745
aF13.047472915693284
aF13.04743982774951
aF13.04734526426564
aF13.04731650780477
aF13.047310056657508
aF13.047298900287714
aF13.047283317404414
aF13.047240864129918
aF13.047243199972822
aF13.04719210261398
aF13.047144792693441
aF13.047118591431545
aF13.047104416249077
aF13.047117575311226
aF13.047099748563625
aF13.047238730687557
aF13.047099432632596
aF13.047273420658428
aF13.047098602791042
aF13.047295342156538
aF13.047102023665573
aF13.047098427825755
aF13.047100046015188
aF13.047098518809001
aF13.047098427825755
aF13.107698692667483
aF13.047107317183247
aF13.047099000976065
aF13.047098491901782
aF13.04709843557304
aF13.047098428772223
aF13.047098427942743
aF13.047098427841263
aF13.047098427827713
aF13.047098427827024
aF13.047098427826736
aF13.047098427826114
aF13.047098427825755
aF13.047098427825755
aF13.047098427826192
aF13.047098427825755
aF13.047098427825755
aF13.047098427825755
aF13.047098427825755
aF13.047098427825755
aF13.047098427825755
aF354.91321304873514
aF13.047092085905074
aF13.047090094853857
aF13.047101493576136
aF13.047083285187895
aF13.04709722855915
aF13.047077994349376
aF13.047067747462428
aF13.0470697276597
aF13.047057954676898
aF13.047035794167975
aF13.046884573966079
aF13.046872999356943
aF13.046842879032873
aF13.046814776193454
aF13.046779685335373
aF13.046741393396122
aF13.046680230205634
aF13.046604798804335
aF13.046470703470593
aF13.046259799642225
aF13.045994387681624
aF13.045882321193357
aF13.045772911203926
aF13.04570253432129
aF13.04570253432129
aF13.05751030665612
aF13.04571079394968
aF13.045703092654865
aF13.045702599215051
aF13.045702542503705
aF13.045702535365258
aF13.045702534454808
aF13.045702534340002
aF13.045702534324054
aF13.04570253432243
aF13.045702534321979
aF13.045702534322086
aF13.04570253432129
aF13.04570253432193
aF13.04570253432129
aF13.04570253432129
aF13.045702534322007
aF13.04570253432129
aF13.04570253432129
aF13.045702534321677
aF13.04570253432129
aF305.45616965294147
aF13.045698577628041
aF13.045694186424392
aF13.045681071913137
aF13.045684629494271
aF13.045669140675777
aF13.045717261371156
aF13.045662038418698
aF13.045704238015425
aF13.045655013109648
aF13.045718301401198
aF13.04564782245803
aF13.045737453459719
aF13.045643920260332
aF13.045688511300977
aF13.045640163384686
aF13.04571908605864
aF13.045632475201717
aF13.045700038619565
aF13.045629852687657
aF13.045682481123443
aF13.045626212693573
aF13.045732407821433
aF13.045616033992594
aF13.045660128315134
asS'current_iter'
p3
I72
sS'total_evals'
p4
cnumpy.core.multiarray
scalar
p5
(cnumpy
dtype
p6
(S'i8'
p7
I0
I1
tp8
Rp9
(I3
S'<'
p10
NNNI-1
I-1
I0
tp11
bS'\xa6\x0c\x00\x00\x00\x00\x00\x00'
p12
tp13
Rp14
sS'delta_s'
p15
g5
(g6
(S'f8'
p16
I0
I1
tp17
Rp18
(I3
S'<'
p19
NNNI-1
I-1
I0
tp20
bS'|\xba\xedy\xc1{@?'
p21
tp22
Rp23
sS'delta_m'
p24
g5
(g18
S'|o\xdaw\xd2\x1fx?'
p25
tp26
Rp27
sS'obj_fun'
p28
F13.045616033992594
s.