(dp0
S'Z'
p1
cnumpy.core.multiarray
_reconstruct
p2
(cnumpy
ndarray
p3
(I0
tp4
S'b'
p5
tp6
Rp7
(I1
(I1
I30
I9
tp8
cnumpy
dtype
p9
(S'f8'
p10
I0
I1
tp11
Rp12
(I3
S'<'
p13
NNNI-1
I-1
I0
tp14
bI00
S'I\x9d\x80&\xc2\x06\x00@a2U0*\xa9\x00@\x07\xf0\x16HP|\x01@x\x9c\xa2#\xb9|\x03@ \xd2o_\x07\xce\xe4?\xce\x88\xd2\xde\xe0\x0b\xfc?\x9aw\x9c\xa2#9\x04@\xc6m4\x80\xb7\xc0\x03@\xf1\xf4JY\x86\xb8\x08@\xe4\x14\x1d\xc9\xe5?\xfa?!\x1f\xf4lV}\xf2?\xf2\xb0Pk\x9aw\xf3?\xc3_\x935\xea!\xe7? \xd2o_\x07\xce\xe4?\xce\x88\xd2\xde\xe0\x0b\xfc?\x90\xa0\xf81\xe6\xae\xf5?\xd5\xe7j+\xf6\x97\xfc?\x03}"O\x92\xae\xe9?\xa9\x18\xe7oB!\xc6\xbf)\x91D/\xa3X\xe6\xbfh\xb3\xeas\xb5\x15\xe7\xbf\x7f0\xf0\xdc{\xb8\xe4\xbf6\xb0U\x82\xc5\xe1\xe1\xbfw\xa1\xb9N#-\xe6\xbfV\x82\xc5\xe1\xcc\xaf\xca\xbf\xa2\x7f\x82\x8b\x155\xe3\xbfJ\x80\x9aZ\xb6\xd6\xd5\xbf\x88\x11\xc2\xa3\x8d#\xe1\xbf)\x91D/\xa3X\xe6\xbf\x90kC\xc58\x7f\xd9\xbf\x7f0\xf0\xdc{\xb8\xe4\xbf6\xb0U\x82\xc5\xe1\xe1\xbfw\xa1\xb9N#-\xe6\xbfV\x82\xc5\xe1\xcc\xaf\xca\xbf\xa2\x7f\x82\x8b\x155\xe3\xbfJ\x80\x9aZ\xb6\xd6\xd5\xbf\x88\x11\xc2\xa3\x8d#\xe1\xbf)\x91D/\xa3X\xe6\xbfh\xb3\xeas\xb5\x15\xe7\xbf\x7f0\xf0\xdc{\xb8\xe4\xbf6\xb0U\x82\xc5\xe1\xe1\xbfw\xa1\xb9N#-\xe6\xbf\xe7\x1d\xa7\xe8H.\xe3\xbf\xa2\x7f\x82\x8b\x155\xe3\xbfJ\x80\x9aZ\xb6\xd6\xd5\xbf\xce\x14:\xaf\xb1K\xc8?\xf9\xa3\xa83\xf7\x90\xb4\xbfm9\x97\xe2\xaa\xb2\xcf?\x7f0\xf0\xdc{\xb8\xe4\xbf\xc9\xe5?\xa4\xdf\xbe\xfd?\xce\x88\xd2\xde\xe0\x0b\xfc?\xefr\x11\xdf\x89Y\xc7?\xd8\xf0\xf4JY\x06\x01@J\x80\x9aZ\xb6\xd6\xd5\xbfI\x9d\x80&\xc2\x06\x00@a2U0*\xa9\x00@\x07\xf0\x16HP|\x01@+\xf6\x97\xdd\x93\x87\xf6?\x8a\x8e\xe4\xf2\x1fR\x05@\xce\x88\xd2\xde\xe0\x0b\xfc?\xc7\xba\xb8\x8d\x06\xf0\xfb?\xbc\xd0\\\xa7\x91\x96\xd0\xbfJ\x80\x9aZ\xb6\xd6\xd5\xbf\x93\x18\x04V\x0e-\xf4\xbf)\x91D/\xa3X\xe6\xbfh\xb3\xeas\xb5\x15\xe7\xbf\x7f0\xf0\xdc{\xb8\xe4\xbf6\xb0U\x82\xc5\xe1\xe1\xbfw\xa1\xb9N#-\xe6\xbf8\xdb\xdc\x98\x9e\xb0\xef\xbf\xa2\x7f\x82\x8b\x155\xe3\xbfJ\x80\x9aZ\xb6\xd6\xd5\xbf\x93\x18\x04V\x0e-\xf4\xbf\xbf}\x1d8gD\xcd?%z\x19\xc5rK\xb3\xbfx\x9c\xa2#\xb9|\x03@k\xb2F=D\xa3\xcf?\xce\x88\xd2\xde\xe0\x0b\xfc?\xf0\xa2\xaf \xcdX\xe2?\xaeG\xe1z\x14\xae\xf1?J\x80\x9aZ\xb6\xd6\xd5\xbf5\xef8EGr\xf4?\xd5\xff9\xcc\x97\x17\xeb?m9\x97\xe2\xaa\xb2\xcf?x\x9c\xa2#\xb9|\x03@\x8a\x8e\xe4\xf2\x1fR\x05@w\xa1\xb9N#-\xe6\xbfV\x82\xc5\xe1\xcc\xaf\xca\xbfn\xdd\xcdS\x1dr\xe8?J\x80\x9aZ\xb6\xd6\xd5\xbf\xa9\x18\xe7oB!\xc6\xbf)\x91D/\xa3X\xe6\xbfh\xb3\xeas\xb5\x15\xe7\xbf\x7f0\xf0\xdc{\xb8\xe4\xbf6\xb0U\x82\xc5\xe1\xe1\xbfw\xa1\xb9N#-\xe6\xbf\xe7\x1d\xa7\xe8H.\xe3\xbf\xa2\x7f\x82\x8b\x155\xe3\xbfJ\x80\x9aZ\xb6\xd6\xd5\xbf\x93\x18\x04V\x0e-\xf4\xbf)\x91D/\xa3X\xe6\xbfh\xb3\xeas\xb5\x15\xe7\xbf\x7f0\xf0\xdc{\xb8\xe4\xbf6\xb0U\x82\xc5\xe1\xe1\xbfw\xa1\xb9N#-\xe6\xbfV\x82\xc5\xe1\xcc\xaf\xca\xbf\xa2\x7f\x82\x8b\x155\xe3\xbfJ\x80\x9aZ\xb6\xd6\xd5\xbf\xa9\x18\xe7oB!\xc6\xbf)\x91D/\xa3X\xe6\xbfh\xb3\xeas\xb5\x15\xe7\xbf\x7f0\xf0\xdc{\xb8\xe4\xbf6\x07\x08\xe6\xe8\xf1\xc3\xbfw\xa1\xb9N#-\xe6\xbf8\xdb\xdc\x98\x9e\xb0\xef\xbf\xa2\x7f\x82\x8b\x155\xe3\xbfJ\x80\x9aZ\xb6\xd6\xd5\xbfI\x9d\x80&\xc2\x06\x00@\xac\x8b\xdbh\x00o\xf7?Qk\x9aw\x9c\xa2\xf8?N]\xf9,\xcf\x83\xd3\xbf\xc9\xe5?\xa4\xdf\xbe\xfd?\xce\x88\xd2\xde\xe0\x0b\xfc?\xefr\x11\xdf\x89Y\xc7?\xd5\xe7j+\xf6\x97\xfc?\x9aw\x9c\xa2#9\x13@I\x9d\x80&\xc2\x06\x00@!\x1f\xf4lV}\xf2?\xf2\xb0Pk\x9aw\xf3?\x91\xbb\x08S\x94K\xa3?\xc9\xe5?\xa4\xdf\xbe\xfd?\rl\x95`q8\xd9?\x90\xa0\xf81\xe6\xae\xf5?T\x8c\xf37\xa1\x10\xdb?\x03}"O\x92\xae\xe9?\x93\x18\x04V\x0e-\xf4\xbf)\x91D/\xa3X\xe6\xbfh\xb3\xeas\xb5\x15\xe7\xbf\x7f0\xf0\xdc{\xb8\xe4\xbf\x9e^)\xcb\x10\xc7\xee\xbfw\xa1\xb9N#-\xe6\xbf8\xdb\xdc\x98\x9e\xb0\xef\xbf\xa2\x7f\x82\x8b\x155\xe3\xbfJ\x80\x9aZ\xb6\xd6\xd5\xbf\xc9\xe5?\xa4\xdf\xbe\xec\xbf\xa3\xaf \xcdX4\xe1?%z\x19\xc5rK\xb3\xbf\x91\xbb\x08S\x94K\xa3?}\xae\xb6b\x7f\xd9\xf0?\xc6\xe1\xcc\xaf\xe6\x00\xee?\x90\xa0\xf81\xe6\xae\xf5?n\xdd\xcdS\x1dr\xe8?J\x80\x9aZ\xb6\xd6\xd5\xbf\xce\x14:\xaf\xb1K\xc8?)\x91D/\xa3X\xe6\xbfh\xb3\xeas\xb5\x15\xe7\xbf\x7f0\xf0\xdc{\xb8\xe4\xbf6\xb0U\x82\xc5\xe1\xe1\xbfw\xa1\xb9N#-\xe6\xbf\xe7\x1d\xa7\xe8H.\xe3\xbf\xa2\x7f\x82\x8b\x155\xe3\xbfJ\x80\x9aZ\xb6\xd6\xd5\xbf\x93\x18\x04V\x0e-\xf4\xbf)\x91D/\xa3X\xe6\xbfh\xb3\xeas\xb5\x15\xe7\xbf\x7f0\xf0\xdc{\xb8\xe4\xbf6\xb0U\x82\xc5\xe1\xe1\xbfw\xa1\xb9N#-\xe6\xbfV\x82\xc5\xe1\xcc\xaf\xca\xbf\xa2\x7f\x82\x8b\x155\xe3\xbfJ\x80\x9aZ\xb6\xd6\xd5\xbf\x93\x18\x04V\x0e-\xf4\xbf\xed\x81V`\xc8\xea\xd8\xbf\x90kC\xc58\x7f\xd9\xbf\x7f0\xf0\xdc{\xb8\xe4\xbf6\xb0U\x82\xc5\xe1\xe1\xbfw\xa1\xb9N#-\xe6\xbf8\xdb\xdc\x98\x9e\xb0\xef\xbf\xa2\x7f\x82\x8b\x155\xe3\xbfJ\x80\x9aZ\xb6\xd6\xd5\xbfI\x9d\x80&\xc2\x06\x00@a2U0*\xa9\x00@\x07\xf0\x16HP|\x01@x\x9c\xa2#\xb9|\x03@#J{\x83/L\xf7?\xce\x88\xd2\xde\xe0\x0b\xfc?\x90\xa0\xf81\xe6\xae\xf5?\xc6m4\x80\xb7\xc0\x03@\xcb\xa1E\xb6\xf3\xfd\xf5?\xe4\x14\x1d\xc9\xe5?\xfa?a2U0*\xa9\x00@\x07\xf0\x16HP|\x01@\x7f0\xf0\xdc{\xb8\xe4\xbf\x8a\x8e\xe4\xf2\x1fR\x05@\xb6\x84|\xd0\xb3Y\xf3?V\x82\xc5\xe1\xcc\xaf\xca\xbf2w-!\x1f\xf4\xb4?J\x80\x9aZ\xb6\xd6\xd5\xbf\x93\x18\x04V\x0e-\xf4\xbf)\x91D/\xa3X\xe6\xbf\x90kC\xc58\x7f\xd9\xbf\x7f0\xf0\xdc{\xb8\xe4\xbf6\xb0U\x82\xc5\xe1\xe1\xbf.\x17\xf1\x9d\x98\xf5\xda\xbf\xefr\x11\xdf\x89Y\xc7?\xbc\xd0\\\xa7\x91\x96\xd0\xbfJ\x80\x9aZ\xb6\xd6\xd5\xbf\xce\x14:\xaf\xb1K\xc8?a2U0*\xa9\x00@Qk\x9aw\x9c\xa2\xf8?x\x9c\xa2#\xb9|\x03@\xc9\xe5?\xa4\xdf\xbe\xfd?\xce\x88\xd2\xde\xe0\x0b\xfc?V\x82\xc5\xe1\xcc\xaf\xca\xbf\xaeG\xe1z\x14\xae\xf1?\x03}"O\x92\xae\xe9?I\x9d\x80&\xc2\x06\x00@a2U0*\xa9\x00@\x07\xf0\x16HP|\x01@\x91\xbb\x08S\x94K\xa3?\x8a\x8e\xe4\xf2\x1fR\x05@\xb6\x84|\xd0\xb3Y\xf3?\xc7\xba\xb8\x8d\x06\xf0\xfb?\xa2\x7f\x82\x8b\x155\xe3\xbfJ\x80\x9aZ\xb6\xd6\xd5\xbf\xce\x14:\xaf\xb1K\xc8?)\x91D/\xa3X\xe6\xbfh\xb3\xeas\xb5\x15\xe7\xbf\x7f0\xf0\xdc{\xb8\xe4\xbf6\xb0U\x82\xc5\xe1\xe1\xbfw\xa1\xb9N#-\xe6\xbf\xe7\x1d\xa7\xe8H.\xe3\xbf\xa2\x7f\x82\x8b\x155\xe3\xbfJ\x80\x9aZ\xb6\xd6\xd5\xbf\x88\x11\xc2\xa3\x8d#\xe1\xbf)\x91D/\xa3X\xe6\xbfh\xb3\xeas\xb5\x15\xe7\xbf\x7f0\xf0\xdc{\xb8\xe4\xbf6\xb0U\x82\xc5\xe1\xe1\xbfw\xa1\xb9N#-\xe6\xbf\xe7\x1d\xa7\xe8H.\xe3\xbf\xa2\x7f\x82\x8b\x155\xe3\xbfJ\x80\x9aZ\xb6\xd6\xd5\xbf\x93\x18\x04V\x0e-\xf4\xbf)\x91D/\xa3X\xe6\xbfh\xb3\xeas\xb5\x15\xe7\xbf\x7f0\xf0\xdc{\xb8\xe4\xbf6\xb0U\x82\xc5\xe1\xe1\xbfw\xa1\xb9N#-\xe6\xbf\xe7\x1d\xa7\xe8H.\xe3\xbf\xa2\x7f\x82\x8b\x155\xe3\xbfJ\x80\x9aZ\xb6\xd6\xd5\xbf\xc9\xe5?\xa4\xdf\xbe\xec\xbf)\x91D/\xa3X\xe6\xbfh\xb3\xeas\xb5\x15\xe7\xbf\x7f0\xf0\xdc{\xb8\xe4\xbf6\xb0U\x82\xc5\xe1\xe1\xbfw\xa1\xb9N#-\xe6\xbf8\xdb\xdc\x98\x9e\xb0\xef\xbf\xa2\x7f\x82\x8b\x155\xe3\xbfJ\x80\x9aZ\xb6\xd6\xd5\xbf\xce\x14:\xaf\xb1K\xc8?\xd5\xff9\xcc\x97\x17\xeb?\xf2\xb0Pk\x9aw\xf3?\x17\xb7\xd1\x00\xde\x02\xfc?\xc9\xe5?\xa4\xdf\xbe\xfd?\xce\x88\xd2\xde\xe0\x0b\xfc?V\x82\xc5\xe1\xcc\xaf\xca\xbf\xc6m4\x80\xb7\xc0\x03@\x03}"O\x92\xae\xe9?'
p15
tp16
bsS'params'
p17
g2
(g3
(I0
tp18
g5
tp19
Rp20
(I1
(I768
tp21
g12
I00
S'\x10[\xf6\x88\xb4\xe6*@@\xbdbR\xbe\xe2 @y\xb5YZ\x16\xe8\x14\xc0\x18\xe8\x84\x01\x9d\xd1\x15\xc0\x1d\xd9\xb2\x0b\x17\\\x18\xc0\x04\xa3\xd4\xdd\xcbI\t@_=\x1e\xc5)\xe3#@\xed\xe0\xd8h\xce\x91\x1d\xc0\xee\xd8\xf7\xaf\x82\xb7\x02@\xf5\x16K+\xad\x9e\x10@1\xe6\xbe@\xb6t\x16\xc0^\xacD\xac\xf0\x86\x1a\xc0\xb8T\xda\x94@\xe8\x16\xc0\x0f\xee\x86\x11\xc8:$@4+\xc6>C<\x1b@\xf8\xbc\x97\xc4\x8a\x98\x1e\xc0D\x8f\x02c"u\xf4?\xf5\x83\x81\xab\x1c\x86\x14\xc0\x18H,\xa8\xef\x86\x1a\xc0\x11Y\xcfZl\xac\x1b\xc08Jm\x1e\xaao(@\x9e\x89\xcaq\xc6\xef\x17@\x13[\xeb`\x14\xd5\x15\xc0\'\xa2*\xd6\xe9\xbc\x1d@\xba\xe4[\xcb\xcc~ @\xcc\x9f\xf3\xaa\x1e\x86\x14\xc0\x96\x99T\xd0\x14\\\x18\xc0\xb5\x19\xf6\x91\xaa\x10\x1c\xc0\xbcl\x83\x95\xf2\xbd\x1b\xc0&\xa9(\x99c\'\x1b@\x9f\xa2\xba\x14U|\xef?\x9d\xb5\xf7\x0f\xc8\x8d\xef?\x8a\x95u0\xfa\xc6\xd3\xbf@CNX\x14\x91\xcc\xbf[\xd7E\xa0\xdc[\xc6\xbf\xb9\x16\x04\xb7\x86\x92\xd2\xbf4\xef\x81U@P\xcd\xbfUapN\x05\xc5\xcb\xbf\xffxYw\x1b\xca\xe6?\xbc\x1e\xc8\xce\xfe\n\xf3\xbfw!b\r\xed\xa5\xd0\xbf\x9f\xff\xd5\x0e>Y\xcd\xbf\xcd\x18V>:\\\xe7?\xbb\x929\x92\x82z\xc4?n\xebd\x95\xf3\x06\xf6\xbf\xaa\xc6#K\xb0\x02\xa9\xbf\xa5\xec\xe5\xd3eJ\xea?>\x16\x1c\xd0\xbb\x93c\xbf\x12U\x8bM\x96]\xd4?X\xa7\xbb\x10\xab2\xd8?E\x0c\x8a+.w\xa1?\xc1\xe1\x02B\x0f\x84\xe2?\xf9\xce\xd9\x9a\xf8\x04\xe7?h\xd8&9jG\xc2\xbf0%\xb2\x9d\xea\xa5\xbf\xbft\xa7\x06\xd3#\xa0\xd1\xbf\x0c\xd8\x92P\x0e\x11\xbd?\x9d\xf5\xbf<\xf7g\xe0?\xabH\x14B67\xd3\xbf\xfb\x0c\xda\xa8D\xec\xd4\xbf\xa6\xe6\x87lB\x02\xe7?\xe2\xf3A\x9eL\xe9\xdc?"~\x98\x86\xff\x11\xe2?\xe9W\x8ak\xbd\x18\x80?\xcf\xe5h\xb0B?u\xbf(\xa49\x98Z\x80\xfe\xbf:\xf0\x1f\xaeG\x0f\xd2?\xde\xfa\x0c\xe7\xe9{\xb1?\x82\x9c\xd9l\xb6<\xb0\xbf\xb2\xf4\x1c\x8c\x16\x19\xd1?\xcc\xf6\x88\x85\x841\xde?\x078\xa4\x1b\xdcj\xab?y32\x02 \x1e\xd0\xbf\x91\xedk\x86\x08\xf9\xd3?>hj\xd0,>\xcd?C\xacF \x12\x95\xcc?c{BLi\x19\xc9?\xe0\xad\xbb\xbb\xf6H\xbb\xbfAq>\x9e\xec\x13\xe3\xbf\xd9\xad\x06\xdc\xe5\xea\xc2?\xb3E\xd4\xef\xae\xfe\xc1?\xb4`\x13\x08\xf6\x87\xe5?B\xb8B\xf2Q\xcf\xcd\xbfm\xbc\xb9>\xce\xaf\xd9?H\xe0\xd0\x85\xbc_\xd0?\x1b\xe7\x81\x88\xa0\x0e\xd0\xbf\x12\xdd\x12\xb2\xd9\x8e\xc7\xbfLk\xc9\xb3\xc6\x1a\xe7?\x00F\xc1a\xfao\x9b?\x8da\xe9\x8f\\Y\xc7?\xbd6\x1a\xfe\x97\xed~\xbf\x9b\x92\xa7i\x97\xb6\x81?\xf2\x00P\xa6\x94\x95\xb0\xbfP\xf0+\x11\n\xdb\x92\xbfZ\xfag\xdd5\x92\x94?4\xc0\x1d\xaf\xf4\xf4\x03\xc0o\xbc\xc7\xf3k0\xd0\xbf\xfcGdo\xbc\xe1\xd3\xbf+\xba\xc1\x16\x15\x89\xe8?\xaf\xdb\xbc\xbd\xa8\xcd\xd9?\x94o^\xaanZ\xc9?\xf5c\xd9\x9e\xeb\x7f\x98?\xc2\x9a\x19%}\x9e\x9c\xbf\xec\xc4?\xfcr\xf7\xcd?\x90=\xa4Y\x05\x19\xaa?\xc6\x94OD\x957\xa7\xbf\x9a\x1e\x9bv\xa3\x88\xc3\xbfx\x96{&%\xdc\x01\xc0\xbc\xf0[8\x05\xc4\xd3\xbf?\xca\x06~}\xfd\xc5\xbf\x1c\xc3v\xb0\x8aR\xe5?\x8b\x01E\x1d\xdd\xfd\xa1?\xb8\x9b\xd9\xdd\xf5[\xd7?\x03/c\x98\xccz\xba?\xa9[\xdd\x08\x86d\xb7?\xef\x08\x8b\x95 \x08\xbe\xbf4\xe7\xe7\xdd\xd8k\xb0\xbff\'\xf24\\\xc3\xb8?\xbe\xbaS\xf2\xfa\xc1\xbf?\xdb<\x9f\x11-\xbb\xa5\xbf\x8e\xc8\xe0x\x85\xe8\xfe\xbf\xb9\x1d\x03g\xf8\x89\xf9?1m\xcf\x7f\xaf\x82\xd4?\x12D83%\\\xa9\xbf\x98\t[\x8a\x94\xec\xd1?\x00\xff\x03\xf7$#\xe1?8\x98\xa3+{j\xe4?\r\xcb\x9b\xd4{\xf6\xb2\xbfH\x01\x18\xe5\x9c#\xaf\xbf6\x955X\x18\xbf\xe4\xbfz\xbb\x92\xfe\x17\xd9\x96?vn}\x92\xb1J\xbe\xbf\xa2\xdf\x1e\x8a-H\xc6?e\xab\xcc\x93X\xe9\xd3?\xda\x8a\xbb\x1fO\x9a\xe2?H3d\xe4\x1e+\xe1?\xc7\xb2\xc5\t\xc6\xd1\xe1?\x07@\xab\xea\x9bG\xbf?!Bm&\xd4W\xca\xbf\x14\x00\xaf\xdd\xf4\xe4\xda\xbfn`9\x0b6f\xca?\x8ef\x11\x83Y\x1c\xe6?\xf1b\x02\x11f\xaa\xaf\xbf\xa1\x02\xd7mc\xf1\xd6\xbf\xc6\'R\xcf\x0eC\xce?\xef\xf8\xd8DM\xca\xae\xbfX6\x98\xddO\x9f\x90?\xc4X:\xdf\xe2\x88\xca?%\xa1;{\x0e\x8a\xd0?\xf9\x94\xb0\xfc\x88\x8d\xe7\xbf\xaf\xd9\t\x17\x0b$\xd1\xbf\x1a\xf1\xe8\xf4@>\xd6\xbf\xcb)X\xee3\xfa\xe7?\nW\xbdO\x8e\xee\xdd?D\xf0fJ\x0b\n\xe2?"\x00\xbc\x95\x10\xee\xbb\xbf\x17\x9bY\xe6\xea\x85\xb2\xbf\x08"k\xc8@1\xc2?\x88\x07\xb1\xf8Y\xc1\x9a?\xd2\xe6\x7f#Q6\xab\xbf\x15S\x85\xed\xbc\xde\x88?\xad%a\x19\x1b\x1c6?+\x87\xa5\x0c\xdc\x0e\xc1\xbf\xc4\xbb\xab<\xd5\xdeb?\xab&L(\x1c\xedz\xbf^\xba\x1c\x15\xc0\x14\x04\xc0\x0b\xdb\x91\xdcs\xab\x8b\xbf\xd2\xe06\xc4Zw\xd3?\xef{EW\x84\xfd\xcb?R\x13\xd8\xcdI\x8c\xcb?q\xbf\xa4\xf9X2\xa5?\x1b;\xd5N` \xdb?\nk\xbaF\xcbd\xb2?\xf3_\xbb\x95 f\xd9?\xb1v*\x14Ut\xd2?\x96\x82\x9eq\xa1\xaf\xc0\xbf\xcfy\xee\xb5wJ\xd5\xbf\x89z%^\x9eb\xca?\x97E]>\xed\xa9\xbe?\xf7\x8b\xa3O\xcd\xcc\x8f\xbf\x9c\xae\x03*\xa2\x0c\xc4?\xbaa\x8f\xc0Jj\xb3\xbf54\xfbY\x9cn\xe9\xbfc\xb7\x83\x90Y\xe0\xce\xbf\xaf0A+\x95\xbb\xc1\xbf\x13\xca\x9b\xbap\xd2\xe6?\x8cu\x95#\x96\xff\xba\xbf_\xf4 \xf5\xc2\xe0\xbd?\xa0\x02R\xa0\xb6H\x92\xbfX\x92\x97\xcdac\x93?\xc5#\xfa\xf3A\xe1\xc1\xbf\xc5Vlcx\xff\xa1\xbfU\x81\xa0\xbd\xa1\'\xa3?_,\x96\xce\x93x\xbf?\x16,eAS\xd6\xa2\xbf\x0e\x8d\xbc\xa4)\xdd\x81?\xec\xc5\xcc\xb1G)Q\xbf\xd8?\xd9\xf6\xe2\xf46\xbf\xdb\x85^\x8c\xf3F\x8e?;\xf3\x10`\xdfnr\xbf\xe8\xdc\xfa\x88\xfc\xd2\x07\xc0\xc4\xbe\xc7\xf3k0\xd0\xbf\xce\x8eko\xbc\xe1\xd3\xbfGI\xff\xd4\x17\x89\xe8?A\x96\xeb\x7f\xa5\xcd\xd9?Q\x08\x8c\xa6oZ\xc9?\x1f\xba\xfa\x8e\xeb\x7f\x98?\xe5\xbb\n%}\x9e\x9c\xbfQ\xba\x06jo\xf7\xcd?c\x1b\x01T\x05\x19\xaa?lB\x19D\x957\xa7\xbf\r\xfe\xa0|\xa0\x88\xc3\xbf\xa1zw\x0c"\x13\xb9?\xcd\xc9-\x06\xcerf\xbf\x97\x01\xc1\x1f|\xd6V?\xe8\x1c+\x88=\xdfH?4\xcf+\x161\x0cr\xbf\xfa\x1d\xb8O\xeb\x89p?\xd8\xf2\x81K\xea\xd1r\xbf\x82\x18\xfd6\x9a-\t\xc0\xa6\x98\xe74\xd1\xc0\xd3\xbf\xdb\xcc?M\xcf\xeb\xd2\xbfdB\x01\x7f\xb7\xbe\xe4?"\xdc\xc7!\x89\xef\xe1?.\xf2|\xe0+P\xe2?\xd2\xeb\x82\x1e3\x85\xae\xbf\xafP\x15\xd4\xf7\xc3;\xbf`\r\x1c\xa0\xe1\xa2\xbd?yw3\xd4r\x7f\xa2\xbfZ\x12\xa2\x0f\xe6k\x86?ke\xab\x92\xe3\xa6\x87?\xae\xdc\x15\xb6\xa5\xf9{\xbf>,\xf5 s]\x8d\xbf\xf4\xea\xa1j%\xc7\x8a?\xe3\x87\x07\xb3Qg\x9e?2\x0f\x85E-%\x95?A\xbc\xe3"\xcb\xca\xb7?\xc3\xd2%\x8fB\xed\\\xbf\xceI\n!k\xaf\x84\xbf\xe4\xbev\xfc\x06\x03\x00\xc0\xba\xae\x1f\xb6\x1ax\xfd?am4\xb5I\\\xe0?k\x04\x81\x80t\x9c\xc6\xbf\xb8\xd5\xcf\xc9\x84\xa7:\xbf\xd7z\xd0\xea\xde\xae\xce?^\x99\x90\xd9\x0f\xbd\x99\xbf\xdb.Y\x1e\x94\x1c\xd7?d=\xe4Wy\xb8\xbd\xbf}\xcc\t\x00\xcb\x8d\xc3?\x0fk\x91\xf5\xf69\xd4?\x03_\nKh\xad\xb0?\x95\xe8\xb9^{\x95t?\x95\xd7l;d.\xc5\xbfZN>\xfc!7\xb8\xbf7\xa9\x9a\x0fH\xdc\xc9\xbf\t\xc9I\xd9h\x97\x9b?\x02\xe7\x92\x91\xfaq\xc5\xbfa=\x85\xd2\x12e\x95?6\xa9\xeb}\x1cE\x92?\xe20\xa2_\xe7b\xba?\x14d\xd6\xc8\x86f\xe7\xbf\xf9\x82>\xbbQ\x02\xba\xbf+\xe4\x85?V5\xec?\xb3\xdf\xf1j\xe0\x7f\xc5\xbf\x1bW\x18\x15=\x81\xd1?\xb2\xb7r\x8b,r\xd2?E\xa5\xd8\x1f\xb4N\xd9?\x90r\xe2\xe9\xd0Z\xf3?\xfc\xba\x0b\xefD\xc2\xce\xbf\x8bjN\xf6\x1e\xc5\xe0\xbf}-\x8e\x88\x97=\xaa?\x9di+\xf7+\xfa\xb9?i\xc0\xa5!I\xf4\xa1?\x9ar\xae\x1aE"\xc6?\xcf#\xf3\x98wZ\xd3?yb\x1d\x01\x92\xf7\xc4?\xbb\xe9\xea\xb4\xab\xd1\xac?\x7fz\x7f\xca\x88\xa3\xbe?\xb0\x1e\r\xc6\xb4\xdf\x8b?\x06\xf5v.Q\xe2`?v,\x85Qy\x18\xdd?\x0c\xffz\x9eMW\xc6?\xce\xdb@\xd6\x10>\xd5\xbf\t\xe6\xd8\xa2~t\xca\xbf\xce\xd6\xe1)\xf4\r\xcd\xbfM\x13\xb6\xe1\x04\xc2\xe5?\xb5\xa8\xbd\xa6\x92\xdc\xe1?\x93\x93\x92\x87:\xc0\x95?\xca\xda\xb7\\X\x84\xb2?\xbcJ\xa9\x1ce\xc5\xba\xbf\x97z/\x8ef\xce\xcc?\x8b\x91Gf\x91\x12\xb8?M\xd63o\xf4z\xb5\xbf\x9b\xbdiYb\x18\xc4\xbf^\x95\xfe\x08\x9c\xd1\xb7?\x1b\x13<\xcb\xd9-\xa6\xbf\t\x06\xd5b\xd4$w\xbf%S\x94M\xd4\xa2\x83?\x1d\xa6rzm\x85\x88?\x84&5~|\xb9\x96?\x88\xaa\x98r^\xb9e?\xd3_\xa4\xbb\x9cK\x91?\xfa)\x11\x06\xc5z\xa3\xbf\xda\x02\x85C\xac\xd4\x88\xbf\xa7UO\xac\xc8\xd0\x86?\x98\xa3\xc4\x95*\x88\x01\xc0\xf6n\x11\x90m\x86\xe8?\xccK\x89\xf1q\\\xd3?\xb7\xc7\xef\xdd]\xfa\xd5\xbf6\x11\xc3\x0b\xaf\x93\xcf?\x7f\x16\x03\xe4\xd8w\xea?~;\xbf\xa4\xad\x9c\xbe?\xfb=UG[o\xdd?\xcc\xdb\xa38=n\x98\xbf>CK\x18F\xe3\xe1?a\xf4\xb6h\xff\x03\xd4?"\x1e\x9c\xcf\x93\x8b\xaa?\xe4,\x95<d?\x83?\xc6\x1a\xf5\xdc\xa2v\x89\xbf\xe5aH\x05T{\xd5?\xcem\xa6\x81\'\xb9\xcb\xbf\xf1\xd1\xd2\xb0\xe6\xbd\xac\xbf\x050\x97\x1c\x14\xfe\xc6?t!\xcaX\x9e\x9b\x99\xbf\x92WD\x1d\xf3\xbd\x9f\xbf\xeb\xe8\xb7N\xc1\xc7\xd7?H\xab\xd9\x1f\';\xdb?QU\x89kh\xe7\xc0?\xe1c\x0e\xa3}Zz?\xf9\xf3\xf7\x81\xa17\xe1\xbfY\x1dx\x00\x0c_\xcf?~5\xcf\x91\xe2\xb7\xe8?6\x91\xac\xb1}k\x9b\xbf&\xcf\x13\x1b@r\xa6\xbf2\x14@\x04\x8c\\\xdc\xbf\x85\x04\xbb\x96k\x8e\xca?\x83T\xe7=U\x1a\xfa?\xd3\x1b\xd0x\x9b\xe6U\xbfC\x81\x08\r5a\xd8\xbf\x1f\x85\x7fa\xaf\x98\xbf\xbf\xf88*?\xfe=\xa6\xbf\x8d\xc1;\xf5\xaeQ\x90?\x05E$(\xdc\x82\xc2?\xb2T\xe3\xc2\x88y\xc0?>%z|Z\x85\xd5?\xe1\xc5RCJ\xe5w?\xa9NZ\xb3F\x87\xbb?\x1dn\x83gN\xba}\xbfc\xdcV>"5\x7f\xbf\x07\x04\xabV\x82\xdb\xb6?\x1eJ\xdau\x8c\xc6\xa6\xbf|\x845M\xd8\xc5\xce?J\x0b\x9f\xe6\xb1\xba\xa2\xbf+\x0ea\xfa]r\xb5\xbf\xe5\xa5\x19\xceB;\xf6\xbf\x94\x9a\x82\x90Y\xe0\xce\xbf\xf3\xf7\x0c+\x95\xbb\xc1\xbf\xb7\xcd\xafop\xd2\xe6?\x06\x8e#\xda\x9d\xff\xba\xbff\x14\x7f\x9e\xbb\xe0\xbd?c)\x1e\xa3\xb6H\x92\xbf\x0f/\xa6\xcdac\x93?&r\xe0SE\xe1\xc1\xbf\x1c\x1bRfx\xff\xa1\xbf_"\xf2\xbd\xa1\'\xa3?\x08\x8b\xec\xc7\x9ax\xbf?\xec\x1c\xa8lV\xd6\xa2\xbf\x92\xa7\xa1t7\xdd\x81?\x05\x8c\xc8\xb1G)Q\xbf\xc2\xcb\xdbF\xe2\xf46\xbf\x91\xb2-1\xf6F\x8e?~\x87\xa3\x02\xe2nr\xbf\x8c\xbc\xa7\xdc\xe1\xfd\x9f?\xc5ofr\x8e5a\xbf\xfe\xb6\xb2r\xcdQ:\xbf\xe1l\xb0\x82\x9c\xa6P?\xa1\xd5j\xc6\xc9e9?^\xd8\xa3\xda\x16\xd4G?$\xd7y\xf42\x1dY\xbf\x1cv\x80\x1d\x8a\xcaQ\xbfn\xd0\x86\xb2\xa0\xbd\t\xc0\xecsa\r\xed\xa5\xd0\xbf\xfbj\x0b\x0e>Y\xcd\xbfG\x08\x10\xe5<\\\xe7?\xf2\xc7N\x1e{z\xc4?\x17\x1a\xff\'\x19\xcd\xcf?c\xac\xdfc\x83\xcaX?\xf9S\xbd\xc7\x13\xe4H\xbf\xe8},\x93Rv\x8e?\x9et\xefc\x86)d\xbf\xbb\xf6w\xe1J\x06q?cy\x96p\xe8\x90\x93?_.AC\xd1\xb0q?$ j=x\xc9d?G\xdfzD\xbalD?\xdb\xde\xed\xdd\xa1\xd0p\xbf\x87\xab\x9f\x1a\x16\xea|?\xec\xd9|\x9c\xbc\x05g?\xd0-\xc03\xaeAJ?!\xa3\xea\x0cb\xd7[?a\x94\xa0\x19\xf1\x959?\x8c\x1bq\xf78VV?\xad\xdc\xf4\xf5\x05\x01A?\x80\x80\xba\xfb\x8bQd\xbf\x9agS\xfay\xb5Z?{Yp\xc42\xcb8?v\x1c\x96\x91\xa1rB?\xb5\xf9\xe7\xa1\'\xb9\n\xc0;\xe0\xdb\x1f\xc3\xbd\xd1\xbf\xa5\x01\x89^\xb2b\xd4\xbf\x01\xa6\x84\x9e\xea\xc9\xe7?\x18\xe2\x99\xdf\x9bb\xdb?\x92\xff;\x86\xfe_\xd8?*\xac\xdbQ\xe7<\x90?k\xaeG\'\x9dJ\x91\xbf\xcd\xb8?7\xdc\x05\xc8?z\x9b<\x87\xf3\x94\x9b?=y\x97(\x7f\xf3\x97\xbf\xb2\xb8\x01Xw^\xb4\xbf\x94\xe2!\x04iH\xab?{\x02\xf8\xfc\xea\xb1P\xbf\xb9\x88E8>\x9bP?A\x9edT=W\x17\xbfU\xd9\xdf\xf9\n.o?\xf0L\x8cU\xf7\x928?_\x8a\x7fY\xfc\xc9r\xbfj\xc9Am\xb44\x87?\x9c\x00:\xc6!\x89l?*YCmgT\'?\x99\xd6\xb3\xf1\xc1\xdd\\\xbf\xb1\xfa\x8aZ\xcb\xdaR?\x0b\xe7!\x0c\x9dm?\xbf\xd3\x805\xa6\xe0IA?\xf2\x05\xac:^\xbbZ\xbf\xde\x80}\x866\xa4c?\x84\x04\xc7\xc9\x11u\n\xc02/2\xb0;\xc2\xd2\xbf\xb4c\xd1\x081\x1e\xd2\xbf\xf5C,4\x12\xcb\xe6?,\xf8b\x00\xedP\xd4?\xa7\x04\x00uq\xde\xdf?W_\xd8=\x81\xd5`?\xf6I\xceP\x13\xd1W?\xd5!"\xf8\xf3\xea\xa9?\xa7\xff\xfct"\xd2\x86\xbfr\x8aq\xebV\xb2\x86?\xcdd\xa0s\x05V\xa6?RAC&\x99J\x8d\xbf\x161\x95\xa4Y\x85t?h{:\x1c\x99 4\xbfi\x12\xa0;+\xc7t\xbf\x07{q\xd9\x03\n\x92?\xe9\xc6\x17\x84W\xd7o?\xb4v4\r;<o\xbf\xd0rf\x95\xc1\xf5Z\xbfR\x7f\xd9,\x80\x16k?$\x91\xe9\x8f\\<A?\x8f\x02+\xbb\xd2W\\\xbf\xc6\xed\xbe\xae\x06eV\xbf~\xcd\x8f\xab\xd4EU?\xb2\x84Vd\x9fjP?\xbd\xd4u`\xbb\xc4]\xbf\x7f&\xabcs\xedv?\xf3P\x16\x14Z\xa3n?\xa1f\xaej\xf7`\n\xc0T1Lq\xd4f\xe8?R\xa5\xfc\xebjh\xe0?\x89c\x8d\xd3$\xae\xd2\xbf\xa8u6\xe7\xa9\x11\xdc?\xe4 (\x01K\x84\xe6?\xe2\xae8\x015\xf1\xe0?4k\x8f\x89\xf8V\xa4\xbf&\xeeA`\xa8\xd6\xbe\xbf\x85\x84\xe42\x96\xa3\xdf?\x88\xce\xcf\xc7g)\xd9?\xc0\xfd:\x04~\x11\xc0?\xfd\x7f\x9cGW~\xb0\xbf\x00\xe1\xee+Y:\xb1\xbf\x18*\xf9i|\xb8\xce?\xd8W#\xd572\xc9\xbf\xf9KRH\'\x14q\xbf\xa2\xb02"Z\x0f\xbb\xbf}\xc0n\xa3&\x1c\x94\xbf\x06\x1b\xd7\x11\xb7\xf8\x8e\xbfK\xab\x1bc\xc1\xa3\xc1?2\x89 l\xdc\xe3\xd7?\x07\x84s\xd1\xb9\xcbr\xbf\x82k1\xf6-8\x95\xbf\x1b\xce\xed\xa4`\xff\xd0?\xd4\xb5Pm\xf3\x06\xb7?i0\x1a\xab\xc0\xadv\xbf]`L\xbf\x17az\xbf\xf6\xf4\xef4\x19\x9a\x84\xbf\xb3\xea\n\xb8a\x12\x86?\\\xa2\xc7 7\xd0\xf0\xbfd&u\x15\x1e\xdf\xf0?B\xfd\x84\x9a\xc1\x02\x14@k\xa1\x89N:~\x04@I\x9d\x80&\xc2\x06\x00@a2U0*\xa9\x00@\x07\xf0\x16HP|\x01@x\x9c\xa2#\xb9|\x03@ \xd2o_\x07\xce\xe4?\xce\x88\xd2\xde\xe0\x0b\xfc?\x9aw\x9c\xa2#9\x04@\xc6m4\x80\xb7\xc0\x03@\xf1\xf4JY\x86\xb8\x08@\xe4\x14\x1d\xc9\xe5?\xfa?!\x1f\xf4lV}\xf2?\xf2\xb0Pk\x9aw\xf3?\xc3_\x935\xea!\xe7? \xd2o_\x07\xce\xe4?\xce\x88\xd2\xde\xe0\x0b\xfc?\x90\xa0\xf81\xe6\xae\xf5?\xd5\xe7j+\xf6\x97\xfc?\x03}"O\x92\xae\xe9?\xa9\x18\xe7oB!\xc6\xbf)\x91D/\xa3X\xe6\xbfh\xb3\xeas\xb5\x15\xe7\xbf\x7f0\xf0\xdc{\xb8\xe4\xbf6\xb0U\x82\xc5\xe1\xe1\xbfw\xa1\xb9N#-\xe6\xbfV\x82\xc5\xe1\xcc\xaf\xca\xbf\xa2\x7f\x82\x8b\x155\xe3\xbfJ\x80\x9aZ\xb6\xd6\xd5\xbf\x88\x11\xc2\xa3\x8d#\xe1\xbf)\x91D/\xa3X\xe6\xbf\x90kC\xc58\x7f\xd9\xbf\x7f0\xf0\xdc{\xb8\xe4\xbf6\xb0U\x82\xc5\xe1\xe1\xbfw\xa1\xb9N#-\xe6\xbfV\x82\xc5\xe1\xcc\xaf\xca\xbf\xa2\x7f\x82\x8b\x155\xe3\xbfJ\x80\x9aZ\xb6\xd6\xd5\xbf\x88\x11\xc2\xa3\x8d#\xe1\xbf)\x91D/\xa3X\xe6\xbfh\xb3\xeas\xb5\x15\xe7\xbf\x7f0\xf0\xdc{\xb8\xe4\xbf6\xb0U\x82\xc5\xe1\xe1\xbfw\xa1\xb9N#-\xe6\xbf\xe7\x1d\xa7\xe8H.\xe3\xbf\xa2\x7f\x82\x8b\x155\xe3\xbfJ\x80\x9aZ\xb6\xd6\xd5\xbf\xce\x14:\xaf\xb1K\xc8?\xf9\xa3\xa83\xf7\x90\xb4\xbfm9\x97\xe2\xaa\xb2\xcf?\x7f0\xf0\xdc{\xb8\xe4\xbf\xc9\xe5?\xa4\xdf\xbe\xfd?\xce\x88\xd2\xde\xe0\x0b\xfc?\xefr\x11\xdf\x89Y\xc7?\xd8\xf0\xf4JY\x06\x01@J\x80\x9aZ\xb6\xd6\xd5\xbfI\x9d\x80&\xc2\x06\x00@a2U0*\xa9\x00@\x07\xf0\x16HP|\x01@+\xf6\x97\xdd\x93\x87\xf6?\x8a\x8e\xe4\xf2\x1fR\x05@\xce\x88\xd2\xde\xe0\x0b\xfc?\xc7\xba\xb8\x8d\x06\xf0\xfb?\xbc\xd0\\\xa7\x91\x96\xd0\xbfJ\x80\x9aZ\xb6\xd6\xd5\xbf\x93\x18\x04V\x0e-\xf4\xbf)\x91D/\xa3X\xe6\xbfh\xb3\xeas\xb5\x15\xe7\xbf\x7f0\xf0\xdc{\xb8\xe4\xbf6\xb0U\x82\xc5\xe1\xe1\xbfw\xa1\xb9N#-\xe6\xbf8\xdb\xdc\x98\x9e\xb0\xef\xbf\xa2\x7f\x82\x8b\x155\xe3\xbfJ\x80\x9aZ\xb6\xd6\xd5\xbf\x93\x18\x04V\x0e-\xf4\xbf\xbf}\x1d8gD\xcd?%z\x19\xc5rK\xb3\xbfx\x9c\xa2#\xb9|\x03@k\xb2F=D\xa3\xcf?\xce\x88\xd2\xde\xe0\x0b\xfc?\xf0\xa2\xaf \xcdX\xe2?\xaeG\xe1z\x14\xae\xf1?J\x80\x9aZ\xb6\xd6\xd5\xbf5\xef8EGr\xf4?\xd5\xff9\xcc\x97\x17\xeb?m9\x97\xe2\xaa\xb2\xcf?x\x9c\xa2#\xb9|\x03@\x8a\x8e\xe4\xf2\x1fR\x05@w\xa1\xb9N#-\xe6\xbfV\x82\xc5\xe1\xcc\xaf\xca\xbfn\xdd\xcdS\x1dr\xe8?J\x80\x9aZ\xb6\xd6\xd5\xbf\xa9\x18\xe7oB!\xc6\xbf)\x91D/\xa3X\xe6\xbfh\xb3\xeas\xb5\x15\xe7\xbf\x7f0\xf0\xdc{\xb8\xe4\xbf6\xb0U\x82\xc5\xe1\xe1\xbfw\xa1\xb9N#-\xe6\xbf\xe7\x1d\xa7\xe8H.\xe3\xbf\xa2\x7f\x82\x8b\x155\xe3\xbfJ\x80\x9aZ\xb6\xd6\xd5\xbf\x93\x18\x04V\x0e-\xf4\xbf)\x91D/\xa3X\xe6\xbfh\xb3\xeas\xb5\x15\xe7\xbf\x7f0\xf0\xdc{\xb8\xe4\xbf6\xb0U\x82\xc5\xe1\xe1\xbfw\xa1\xb9N#-\xe6\xbfV\x82\xc5\xe1\xcc\xaf\xca\xbf\xa2\x7f\x82\x8b\x155\xe3\xbfJ\x80\x9aZ\xb6\xd6\xd5\xbf\xa9\x18\xe7oB!\xc6\xbf)\x91D/\xa3X\xe6\xbfh\xb3\xeas\xb5\x15\xe7\xbf\x7f0\xf0\xdc{\xb8\xe4\xbf6\x07\x08\xe6\xe8\xf1\xc3\xbfw\xa1\xb9N#-\xe6\xbf8\xdb\xdc\x98\x9e\xb0\xef\xbf\xa2\x7f\x82\x8b\x155\xe3\xbfJ\x80\x9aZ\xb6\xd6\xd5\xbfI\x9d\x80&\xc2\x06\x00@\xac\x8b\xdbh\x00o\xf7?Qk\x9aw\x9c\xa2\xf8?N]\xf9,\xcf\x83\xd3\xbf\xc9\xe5?\xa4\xdf\xbe\xfd?\xce\x88\xd2\xde\xe0\x0b\xfc?\xefr\x11\xdf\x89Y\xc7?\xd5\xe7j+\xf6\x97\xfc?\x9aw\x9c\xa2#9\x13@I\x9d\x80&\xc2\x06\x00@!\x1f\xf4lV}\xf2?\xf2\xb0Pk\x9aw\xf3?\x91\xbb\x08S\x94K\xa3?\xc9\xe5?\xa4\xdf\xbe\xfd?\rl\x95`q8\xd9?\x90\xa0\xf81\xe6\xae\xf5?T\x8c\xf37\xa1\x10\xdb?\x03}"O\x92\xae\xe9?\x93\x18\x04V\x0e-\xf4\xbf)\x91D/\xa3X\xe6\xbfh\xb3\xeas\xb5\x15\xe7\xbf\x7f0\xf0\xdc{\xb8\xe4\xbf\x9e^)\xcb\x10\xc7\xee\xbfw\xa1\xb9N#-\xe6\xbf8\xdb\xdc\x98\x9e\xb0\xef\xbf\xa2\x7f\x82\x8b\x155\xe3\xbfJ\x80\x9aZ\xb6\xd6\xd5\xbf\xc9\xe5?\xa4\xdf\xbe\xec\xbf\xa3\xaf \xcdX4\xe1?%z\x19\xc5rK\xb3\xbf\x91\xbb\x08S\x94K\xa3?}\xae\xb6b\x7f\xd9\xf0?\xc6\xe1\xcc\xaf\xe6\x00\xee?\x90\xa0\xf81\xe6\xae\xf5?n\xdd\xcdS\x1dr\xe8?J\x80\x9aZ\xb6\xd6\xd5\xbf\xce\x14:\xaf\xb1K\xc8?)\x91D/\xa3X\xe6\xbfh\xb3\xeas\xb5\x15\xe7\xbf\x7f0\xf0\xdc{\xb8\xe4\xbf6\xb0U\x82\xc5\xe1\xe1\xbfw\xa1\xb9N#-\xe6\xbf\xe7\x1d\xa7\xe8H.\xe3\xbf\xa2\x7f\x82\x8b\x155\xe3\xbfJ\x80\x9aZ\xb6\xd6\xd5\xbf\x93\x18\x04V\x0e-\xf4\xbf)\x91D/\xa3X\xe6\xbfh\xb3\xeas\xb5\x15\xe7\xbf\x7f0\xf0\xdc{\xb8\xe4\xbf6\xb0U\x82\xc5\xe1\xe1\xbfw\xa1\xb9N#-\xe6\xbfV\x82\xc5\xe1\xcc\xaf\xca\xbf\xa2\x7f\x82\x8b\x155\xe3\xbfJ\x80\x9aZ\xb6\xd6\xd5\xbf\x93\x18\x04V\x0e-\xf4\xbf\xed\x81V`\xc8\xea\xd8\xbf\x90kC\xc58\x7f\xd9\xbf\x7f0\xf0\xdc{\xb8\xe4\xbf6\xb0U\x82\xc5\xe1\xe1\xbfw\xa1\xb9N#-\xe6\xbf8\xdb\xdc\x98\x9e\xb0\xef\xbf\xa2\x7f\x82\x8b\x155\xe3\xbfJ\x80\x9aZ\xb6\xd6\xd5\xbfI\x9d\x80&\xc2\x06\x00@a2U0*\xa9\x00@\x07\xf0\x16HP|\x01@x\x9c\xa2#\xb9|\x03@#J{\x83/L\xf7?\xce\x88\xd2\xde\xe0\x0b\xfc?\x90\xa0\xf81\xe6\xae\xf5?\xc6m4\x80\xb7\xc0\x03@\xcb\xa1E\xb6\xf3\xfd\xf5?\xe4\x14\x1d\xc9\xe5?\xfa?a2U0*\xa9\x00@\x07\xf0\x16HP|\x01@\x7f0\xf0\xdc{\xb8\xe4\xbf\x8a\x8e\xe4\xf2\x1fR\x05@\xb6\x84|\xd0\xb3Y\xf3?V\x82\xc5\xe1\xcc\xaf\xca\xbf2w-!\x1f\xf4\xb4?J\x80\x9aZ\xb6\xd6\xd5\xbf\x93\x18\x04V\x0e-\xf4\xbf)\x91D/\xa3X\xe6\xbf\x90kC\xc58\x7f\xd9\xbf\x7f0\xf0\xdc{\xb8\xe4\xbf6\xb0U\x82\xc5\xe1\xe1\xbf.\x17\xf1\x9d\x98\xf5\xda\xbf\xefr\x11\xdf\x89Y\xc7?\xbc\xd0\\\xa7\x91\x96\xd0\xbfJ\x80\x9aZ\xb6\xd6\xd5\xbf\xce\x14:\xaf\xb1K\xc8?a2U0*\xa9\x00@Qk\x9aw\x9c\xa2\xf8?x\x9c\xa2#\xb9|\x03@\xc9\xe5?\xa4\xdf\xbe\xfd?\xce\x88\xd2\xde\xe0\x0b\xfc?V\x82\xc5\xe1\xcc\xaf\xca\xbf\xaeG\xe1z\x14\xae\xf1?\x03}"O\x92\xae\xe9?I\x9d\x80&\xc2\x06\x00@a2U0*\xa9\x00@\x07\xf0\x16HP|\x01@\x91\xbb\x08S\x94K\xa3?\x8a\x8e\xe4\xf2\x1fR\x05@\xb6\x84|\xd0\xb3Y\xf3?\xc7\xba\xb8\x8d\x06\xf0\xfb?\xa2\x7f\x82\x8b\x155\xe3\xbfJ\x80\x9aZ\xb6\xd6\xd5\xbf\xce\x14:\xaf\xb1K\xc8?)\x91D/\xa3X\xe6\xbfh\xb3\xeas\xb5\x15\xe7\xbf\x7f0\xf0\xdc{\xb8\xe4\xbf6\xb0U\x82\xc5\xe1\xe1\xbfw\xa1\xb9N#-\xe6\xbf\xe7\x1d\xa7\xe8H.\xe3\xbf\xa2\x7f\x82\x8b\x155\xe3\xbfJ\x80\x9aZ\xb6\xd6\xd5\xbf\x88\x11\xc2\xa3\x8d#\xe1\xbf)\x91D/\xa3X\xe6\xbfh\xb3\xeas\xb5\x15\xe7\xbf\x7f0\xf0\xdc{\xb8\xe4\xbf6\xb0U\x82\xc5\xe1\xe1\xbfw\xa1\xb9N#-\xe6\xbf\xe7\x1d\xa7\xe8H.\xe3\xbf\xa2\x7f\x82\x8b\x155\xe3\xbfJ\x80\x9aZ\xb6\xd6\xd5\xbf\x93\x18\x04V\x0e-\xf4\xbf)\x91D/\xa3X\xe6\xbfh\xb3\xeas\xb5\x15\xe7\xbf\x7f0\xf0\xdc{\xb8\xe4\xbf6\xb0U\x82\xc5\xe1\xe1\xbfw\xa1\xb9N#-\xe6\xbf\xe7\x1d\xa7\xe8H.\xe3\xbf\xa2\x7f\x82\x8b\x155\xe3\xbfJ\x80\x9aZ\xb6\xd6\xd5\xbf\xc9\xe5?\xa4\xdf\xbe\xec\xbf)\x91D/\xa3X\xe6\xbfh\xb3\xeas\xb5\x15\xe7\xbf\x7f0\xf0\xdc{\xb8\xe4\xbf6\xb0U\x82\xc5\xe1\xe1\xbfw\xa1\xb9N#-\xe6\xbf8\xdb\xdc\x98\x9e\xb0\xef\xbf\xa2\x7f\x82\x8b\x155\xe3\xbfJ\x80\x9aZ\xb6\xd6\xd5\xbf\xce\x14:\xaf\xb1K\xc8?\xd5\xff9\xcc\x97\x17\xeb?\xf2\xb0Pk\x9aw\xf3?\x17\xb7\xd1\x00\xde\x02\xfc?\xc9\xe5?\xa4\xdf\xbe\xfd?\xce\x88\xd2\xde\xe0\x0b\xfc?V\x82\xc5\xe1\xcc\xaf\xca\xbf\xc6m4\x80\xb7\xc0\x03@\x03}"O\x92\xae\xe9?'
p22
tp23
bs.(dp0
S'obj_track'
p1
(lp2
F340.37211234231654
aF338.9167782029852
aF329.84862033560705
aF315.92941176661856
aF273.73928120111407
aF251.01905627390155
aF215.11664237104077
aF172.20280352248585
aF153.1352771157331
aF143.05038525630104
aF127.56337866631378
aF118.66112017271084
aF111.985394703906
aF107.48981380832947
aF104.5276753511043
aF101.45369228207365
aF96.41730914608817
aF92.71887117652008
aF93.70424991162623
aF91.85065996869254
aF91.16956718172821
aF90.83170416066338
aF90.33414657881718
aF89.78029394237309
aF89.3181241569302
aF88.88290962516174
aF88.88290962516174
aF240.72538430083415
aF84.49529036743758
aF84.2340714650777
aF84.10758671298868
aF83.92016036063494
aF83.91020829907492
aF83.90975810927596
aF83.90975361921632
aF83.90975368709434
aF83.90975361999585
aF83.90975361922575
aF83.90975361921625
aF83.90975361921642
aF83.90975361921625
aF83.90975361921625
aF212.4520881408675
aF82.42312569830496
aF81.75159050918533
aF81.27563735730106
aF80.92125134200901
aF80.3477094002388
aF80.01225075301092
aF79.63562093834854
aF79.48687002967557
aF79.15847909650083
aF78.46457451653522
aF77.41156048340167
aF76.68770638824347
aF75.7787233688632
aF75.39557855959039
aF75.14838423121103
aF74.60211309904746
aF74.07361984524522
aF73.72165395453912
aF73.45248028278745
aF73.21000984693599
aF72.88772232659886
aF72.29535164503292
aF71.75263649093823
aF72.59302483638184
aF71.75263649093823
aF194.9250032893009
aF59.779835295409896
aF58.86644281815538
aF58.25882251925538
aF57.77420189020267
aF56.93246754954794
aF56.689367142038435
aF56.65831360807944
aF56.65810240207095
aF56.658100075172214
aF56.65809969400166
aF56.65809969400166
aF247.31662929431053
aF54.917517626634485
aF53.943809240148966
aF52.77723519504241
aF52.35294120926499
aF52.01201904516726
aF51.74568822283565
aF51.09280695473262
aF50.88142120938011
aF50.26024177682821
aF49.90534106029685
aF49.448833482013285
aF48.73237531888509
aF47.4862568618026
aF48.43828471041598
aF46.854309812978684
aF45.78863670392026
aF45.01049148480138
aF44.23054639279583
aF43.8988830283008
aF43.27625187541523
aF42.979548614146026
aF42.6383932689433
aF41.99723277163294
aF41.71561142001434
aF41.71561142001434
aF255.13231171732343
aF37.13939605849291
aF36.85115014784084
aF35.19660235898691
aF34.92888113516652
aF34.90142014932323
aF34.901205334019934
aF34.901223595943435
aF34.90120548996147
aF34.901205335395346
aF34.90120533403147
aF34.90120533401974
aF34.901205334019636
aF34.90120533402572
aF34.90120533401921
aF34.901205334019025
aF34.90120533402296
aF34.90120533401969
aF34.901205334019025
aF34.90120533401976
aF34.901205334019025
aF34.90122180153298
aF34.90120541174878
aF34.901205334392245
aF34.90120533402185
aF34.901205334019025
aF355.4480042408026
aF33.537091352233276
aF33.11862494113457
aF32.13799546260213
aF31.900505145528705
aF31.63206415541588
aF31.421065374286062
aF31.29266123487408
aF31.160061818399846
aF30.957202198170382
aF30.8549712230555
aF30.688605665742408
aF30.37477696944662
aF29.931550625809223
aF29.49804787020022
aF29.098203953634865
aF28.89145051335484
aF28.592694894838512
aF28.18684736361937
aF28.052386827016864
aF27.635245828888312
aF27.39859714283846
aF26.97873506925808
aF26.515123651651038
aF27.78966332700346
aF26.515123651651038
aF333.4916041911226
aF25.495838686205392
aF25.063019821032928
aF25.035300673944462
aF24.924662421844914
aF24.82821247240708
aF24.764565906797326
aF24.7646045403367
aF24.76437516042637
aF24.764620740918723
aF24.764345188175636
aF24.76461729045316
aF24.7643496861426
aF24.764344630455817
aF24.764346711628818
aF24.764344661566497
aF24.764344619489464
aF24.76434463261937
aF24.76434461752712
aF24.764344623522796
aF24.764344617510858
aF24.764344617510858
aF24.764616167214037
aF24.764352023769206
aF24.76434489124173
aF24.764344617510858
aF207.92548718473648
aF24.32800812837161
aF24.036430058242885
aF23.784031781208213
aF23.664703753929096
aF23.505268295819704
aF23.24532529983673
aF23.007499367649725
aF22.906323315676357
aF22.778493780751358
aF22.65321721612588
aF22.5085031240636
aF22.39240218702876
aF22.31153948546313
aF22.248388951863106
aF22.087457335473836
aF21.976086530721236
aF21.808439085446107
aF21.692844814044097
aF21.59546443020838
aF21.455515859154588
aF21.236357518062157
aF21.108893298905052
aF20.970835267589536
aF20.82767956330069
aF20.82767956330069
aF370.7017214232426
aF20.893384811053433
aF20.048883108361593
aF20.029898094794326
aF19.962942240407312
aF19.82733104679512
aF19.826809679649998
aF19.826945116008638
aF19.826813292505154
aF19.826809789211836
aF19.82680968298562
aF19.8268096797516
aF19.82680967965326
aF19.82680967965024
aF19.82680967965012
aF19.826809679649998
aF19.826809679650154
aF19.826809679649998
aF19.826809679649998
aF19.82680967964995
aF19.82680967964995
aF19.82680967964995
aF19.826809679650083
aF19.82680967964995
aF19.82680967964995
aF19.82680967964995
aF323.4253733815086
aF19.611814594365576
aF19.52610795942151
aF19.353107914097883
aF19.254945383387057
aF19.14680345487836
aF19.026843744458077
aF18.92341317584445
aF18.83417282777568
aF18.71068945042517
aF18.61684391177475
aF18.578091148667184
aF18.497670411269947
aF18.439205130169526
aF18.35787537970862
aF18.238983802145842
aF18.165550184375725
aF18.106323217304066
aF17.974647909491352
aF17.910462217002184
aF17.823709449895333
aF17.733601418772984
aF17.62407670306689
aF17.540174494868133
aF17.44936123076843
aF17.44936123076843
aF342.6552360230178
aF18.073818289175193
aF17.061284625135734
aF17.05267903595988
aF17.022223804470503
aF16.948392125780487
aF16.948551700198934
aF16.94832905664854
aF16.948598414948762
aF16.94832434589074
aF16.948600054000067
aF16.948335732361656
aF16.9483255839207
aF16.948324551275142
aF16.94832438407514
aF16.948324353160558
aF16.948324347281044
aF16.94832434615686
aF16.948324345941995
aF16.948324345900566
aF16.948324345892907
aF16.94832434589095
aF16.948324345890878
aF16.948324345890892
aF16.948324345890867
aF16.94832434589074
aF197.57451999576716
aF16.796516830781776
aF16.712675535283694
aF16.647677223961466
aF16.586078530535577
aF16.497628953634145
aF16.394755233024
aF16.329414693150298
aF16.23814557190542
aF16.196579757295112
aF16.13981383028682
aF16.096312804585445
aF16.041608408397785
aF15.998864328984322
aF15.944442002197022
aF15.896666075418747
aF15.838095468088477
aF15.762417637567793
aF15.719643045369072
aF15.756167182021283
aF15.68757962088647
aF15.63547538154381
aF15.595956005478044
aF15.529549909119545
aF15.471248681850758
aF15.471248681850758
aF374.2821521577372
aF16.630350739831144
aF15.33284665344625
aF15.326587673800262
aF15.304508054682842
aF15.247276627932699
aF15.247556909412491
aF15.247193168725902
aF15.247595228030155
aF15.24719026448892
aF15.247596773527578
aF15.247208036074895
aF15.247192305908827
aF15.247190605124853
aF15.247190326813948
aF15.247190276103954
aF15.247190266661065
aF15.247190264895442
aF15.247190264565049
aF15.247190264503143
aF15.247190264491682
aF15.247190264489525
aF15.247190264489022
aF15.247190264488953
aF15.247190264488939
aF15.24719026448892
aF237.10130651333924
aF15.16092057207018
aF15.107634509743983
aF15.02295820038483
aF14.980228820951833
aF14.931291998363756
aF14.873666322782631
aF14.82728277313296
aF14.773799319743556
aF14.722409185287125
aF14.675453402924175
aF14.640130730562605
aF14.615865282951477
aF14.577845997321795
aF14.55645183854323
aF14.525045617268004
aF14.437061916819282
aF14.395384655062115
aF14.350914514910814
aF14.318501614708941
aF14.293471017457485
aF14.260247049611438
aF14.206097813905245
aF14.128189041785275
aF14.013788224790911
aF14.013788224790911
aF335.31848806532776
aF15.14333106747036
aF13.900888688892492
aF13.89536942585174
aF13.875615357594404
aF13.820416668856232
aF13.82061561176684
aF13.820371246065754
aF13.820647570477579
aF13.820370971230137
aF13.820648195990564
aF13.820383537763654
aF13.820372454594347
aF13.820371218546345
aF13.820371015952036
aF13.82037097944639
aF13.820370972744103
aF13.820370971509398
aF13.820370971281905
aF13.82037097124
aF13.820370971232226
aF13.820370971231013
aF13.8203709712303
aF13.820370971230417
aF13.8203709712304
aF13.820370971230137
aF184.80857313306763
aF13.703851366764397
aF13.64574581765095
aF13.607572876319768
aF13.555311891684891
aF13.492115159603555
aF13.450519510406664
aF13.430097917894328
aF13.405882448705091
aF13.376737691903156
aF13.344488776694595
aF13.313905027439576
aF13.282792574241869
aF13.248964666216327
aF13.220485636653324
aF13.201488366207604
aF13.187590221159283
aF13.160395855674745
aF13.10994247190579
aF13.091634154768437
aF13.053697843017254
aF13.040288963126097
aF13.024483313589485
aF12.995876490493472
aF12.959291720861017
aF12.959291720861017
aF356.8376410039694
aF14.259380413372929
aF12.90830710296686
aF12.905035724519161
aF12.893356674912836
aF12.85943556717683
aF12.859751881646174
aF12.85940866984532
aF12.859771117134812
aF12.859418215705066
aF12.859408943087276
aF12.859408656695765
aF12.859408786304293
aF12.859408664775147
aF12.859408657553288
aF12.859408656695765
aF12.859771980833381
aF12.859418819220167
aF12.859409092440353
aF12.859408680572406
aF12.859408658773736
aF12.859408657003149
aF12.859408656754816
aF12.85940865670799
aF12.859408656698346
aF12.859408656695765
aF190.60757629409062
aF12.824891819217418
aF12.804791270007728
aF12.76350570001756
aF12.733346503453054
aF12.697087949725518
aF12.662281994203033
aF12.636570386594407
aF12.613108531292227
aF12.593742522185417
aF12.5699298379831
aF12.543120959208832
aF12.516397902120822
aF12.491315266204285
aF12.472179429990279
aF12.452127668789625
aF12.429528255517658
aF12.406696342368669
aF12.382619181650792
aF12.362162720764095
aF12.345209522996598
aF12.331601344335004
aF12.290715171218975
aF12.252595258125353
aF12.194232541006732
aF12.194232541006732
aF336.822986888454
aF13.438619219318518
aF12.143370581893102
aF12.140504061326059
aF12.13019832504296
aF12.098056003188086
aF12.09828089761665
aF12.098015718363131
aF12.09829460450325
aF12.098018206432387
aF12.098014498609361
aF12.098015541463418
aF12.098295357300353
aF12.098026936008132
aF12.098016763151362
aF12.098015743589432
aF12.098015579146562
aF12.098015548667473
aF12.09801554284739
aF12.098015541729488
aF12.098015541514489
aF12.098015541473188
aF12.098015541465264
aF12.09801554146356
aF12.098015541463534
aF12.098014498609361
aF251.5103794783981
aF12.05440006104736
aF12.027212971495915
aF11.981152349469934
aF11.955524069164225
aF11.928025775395538
aF11.910760129739268
aF11.893563843147914
aF11.879938669474955
aF11.867393181613028
aF11.853774438593033
aF11.837294959946517
aF11.818799650199136
aF11.80191781546049
aF11.786930941442098
aF11.759403643709224
aF11.73023901074538
aF11.696570809821633
aF11.649723354101969
aF11.621997144062481
aF11.591026705990341
aF11.555291200751812
aF11.534751451626734
aF11.50341751869031
aF11.470519137671117
aF11.470519137671117
aF322.61041962398264
aF12.603211132030909
aF11.444178919261283
aF11.441493359187962
aF11.43175358785188
aF11.402186281692535
aF11.40244837554012
aF11.402201229814967
aF11.402188195561736
aF11.402186577244354
aF11.402186328867074
aF11.402186289262922
aF11.402186282908318
aF11.402186281887678
aF11.40218628172375
aF11.402186281697464
aF11.402186281693245
aF11.40218628169256
aF11.40218628169258
aF11.40218628169242
aF11.402186281692378
aF11.402186281692448
aF11.402186281692547
aF11.40218628169238
aF11.402186281692378
aF11.402186281692378
aF267.48584477781617
aF11.367190718993147
aF11.346287037247345
aF11.293386984529123
aF11.258760252040888
aF11.217704219027953
aF11.190505671358808
aF11.16613579142688
aF11.146925046893
aF11.123484611191447
aF11.105780146840349
aF11.089160080271212
aF11.077301699300712
aF11.063361522570414
aF11.05671834563927
aF11.03848999627683
aF11.03109963437419
aF11.022976187456289
aF11.017665640418443
aF11.007649510588118
aF11.001426754260388
aF10.995159995111939
aF10.983650953839565
aF10.977768292927289
aF10.95969866911096
aF10.95969866911096
aF324.9751551134306
aF12.237856340924976
aF10.945057071581086
aF10.94388799790517
aF10.939633517027492
aF10.925616878259993
aF10.925847889108129
aF10.925630681757143
aF10.925618588588705
aF10.925617121815154
aF10.925616913697533
aF10.925616883432605
aF10.925616879015314
aF10.925616878370379
aF10.925616878276099
aF10.925616878262417
aF10.925616878260337
aF10.925616878260003
aF10.92561687826012
aF10.9256168782601
aF10.925616878259993
aF10.925616878259993
aF10.92561687826
aF10.925616878259993
aF10.92561687826
aF10.925616878259993
aF150.86465396014162
aF10.90571466582573
aF10.893220544215794
aF10.878323865693467
aF10.861897870497582
aF10.847681467024016
aF10.838131767423013
aF10.82851575511815
aF10.81809371123986
aF10.809332160066639
aF10.802947186253157
aF10.78986308825401
aF10.77764357787567
aF10.764843110370526
aF10.743026863185552
aF10.72701139888158
aF10.701531543050663
aF10.675397092866856
aF10.647864352486886
aF10.62932508733688
aF10.605323278941851
aF10.589337802342627
aF10.571518397665747
aF10.547961491031252
aF10.527784689502475
aF10.527784689502475
aF304.30850676213515
aF11.608438337388208
aF10.513826055383454
aF10.512231505409545
aF10.506402074594863
aF10.48764145491513
aF10.487830238979408
aF10.487653181460894
aF10.487642654875565
aF10.487641585513417
aF10.487641469226785
aF10.487641456484708
aF10.487641455087234
aF10.487641454933998
aF10.487641454917194
aF10.487641454915344
aF10.48764145491513
aF10.487641454915162
aF10.48764145491517
aF10.487641454915186
aF10.48764145491513
aF10.48764145491513
aF228.72675887311152
aF10.457266387002228
aF10.439738897792218
aF10.416730754628896
aF10.393973259371457
aF10.364545289217832
aF10.345187654944887
aF10.329105586094762
aF10.314268037806297
aF10.293501914840524
aF10.28456089752145
aF10.270472140886906
aF10.264781570630731
aF10.257206972046205
aF10.246017187904851
aF10.243298374756503
aF10.232838064801806
aF10.228596162239695
aF10.22275327968532
aF10.218431008476868
aF10.21061239413464
aF10.206016993205887
aF10.201833143850786
aF10.19409087803928
aF10.180780860133458
aF10.180780860133458
aF305.8245192828745
aF11.358858900058376
aF10.174702117739075
aF10.174080420514004
aF10.17180018161273
aF10.164239719818552
aF10.16437731011168
aF10.164246569605687
aF10.164240177808287
aF10.164239751092676
aF10.164239721957301
aF10.164239719964911
aF10.16423971982843
aF10.16423971981918
aF10.164239719818594
aF10.164239719818438
aF10.164239719818578
aF10.164239719818438
aF10.164239719818438
aF10.164239719818497
aF10.164239719818438
aF10.164239719818438
aF10.164239719818468
aF10.164239719818438
aF10.16437731011359
aF10.164239719818438
aF247.3439949149938
aF10.149041369519525
aF10.139445151109925
aF10.123911413788983
aF10.114144259396078
aF10.099576831530458
aF10.088999486159127
aF10.081491364056584
aF10.076104493255588
aF10.07211140705131
aF10.062136952945727
aF10.054460949436411
aF10.041990416039699
aF10.032938388906823
aF10.023391813370752
aF10.008639750767463
aF9.989298630811016
aF9.97278681481251
aF9.957452494373676
aF9.946150696551149
aF9.93806074020135
aF9.92178352805651
aF9.910269524550538
aF9.890260534468684
aF9.850158593602913
aF9.850158593602913
aF288.5604024057216
aF10.827464495196367
aF9.837172841604316
aF9.835503418230033
aF9.829374961099337
aF9.808635493928788
aF9.808804196472453
aF9.808646130264766
aF9.808636719530437
aF9.808635648816358
aF9.808635513743699
aF9.808635496467803
aF9.808635494254373
aF9.808635493970803
aF9.808635493934403
aF9.808635493929657
aF9.808635493928875
aF9.80863549392882
aF9.808635493928831
aF9.808635493928788
aF9.80863549392889
aF9.808635493928788
aF9.808635493928788
aF9.80863549392889
aF9.808635493928788
aF9.808635493928788
aF371.6501146410492
aF9.74665468741003
aF9.729275589290253
aF9.67035817043862
aF9.66097317363102
aF9.642454555741272
aF9.63590864351858
aF9.626507076100701
aF9.61081684596821
aF9.588718756848086
aF9.595865599015944
aF9.57878535154536
aF9.569500170362907
aF9.564561062338008
aF9.558722223862075
aF9.55093965651868
aF9.542682087058166
aF9.537461504056987
aF9.533267046459603
aF9.529075065239677
aF9.523085776919878
aF9.516782070496271
aF9.513956520593759
aF9.51301032707556
aF9.508185210924687
aF9.508185210924687
aF295.80880520988035
aF10.623061623744286
aF9.503593949734675
aF9.50312693709661
aF9.501408162263044
aF9.495417191563867
aF9.495540183585236
aF9.49542335175731
aF9.495417608101967
aF9.495417220347722
aF9.495417193555713
aF9.495417191701726
aF9.495417191573486
aF9.495417191564448
aF9.495417191563902
aF9.49541719156393
aF9.49541719156391
aF9.495417191563867
aF9.495417191563867
aF9.495417191563897
aF9.495417191563867
aF9.495417191563867
aF9.495417191563867
aF9.495417191563867
aF9.495417191563867
aF9.495417191563867
aF165.34070657748902
aF9.488456300591881
aF9.485077621079895
aF9.47973734144403
aF9.47083537030805
aF9.46084462508089
aF9.453158950104148
aF9.447229134245639
aF9.442557780287345
aF9.438632724089532
aF9.433289067767033
aF9.427557700803252
aF9.419452178803544
aF9.408075720752576
aF9.397572230203954
aF9.388502844506055
aF9.379385398976032
aF9.37365625183876
aF9.365720603083032
aF9.357350954430514
aF9.347593346007363
aF9.330782519027817
aF9.304952308649273
aF9.267779946542595
aF9.21339632918923
aF9.21339632918923
aF280.56379661509885
aF10.148808373900467
aF9.201416075152949
aF9.200025301912852
aF9.194903720028035
aF9.176322172461033
aF9.176485002530608
aF9.176332281263672
aF9.176323389900707
aF9.176322336688374
aF9.176322194977757
aF9.176322175554963
aF9.176322172886156
aF9.17632217251921
aF9.176322172469002
aF9.176322172462124
aF9.176322172461102
aF9.176322172461033
aF9.176322172461116
aF9.17632217246073
aF9.176322172461004
aF9.17632217246073
aF9.176621833242068
aF9.17633505127335
aF9.176323407724869
aF9.17632217246073
aF162.9274839464145
aF9.13425448833316
aF9.105056009510102
aF9.07502475272425
aF9.056405875138717
aF9.046598986150013
aF9.041897430328314
aF9.033480536746172
aF9.02555095734896
aF9.022610288160415
aF9.01414956893209
aF9.011350490824952
aF9.00565519953969
aF8.999372448188314
aF8.995897613132994
aF8.990843969058105
aF8.98870504739391
aF8.985106756152863
aF8.978999216187098
aF8.973309705113472
aF8.966305094316558
aF8.96152573635099
aF8.959600726114594
aF8.956617108794214
aF8.951494329476644
aF8.951494329476644
aF60.596976477193444
aF8.949531725368857
aF8.949082394813916
aF8.948397158770783
aF8.946594402213462
aF8.944352275468258
aF8.942490235438564
aF8.942371093039421
aF8.94234990951284
aF8.94234646772863
aF8.942346440327025
aF8.942346440327025
aF219.57158635519934
aF8.937209568793353
aF8.934121656241018
aF8.929852164767064
aF8.924801929639615
aF8.915740816516466
aF8.908566024100216
aF8.903133234887932
aF8.898314558576176
aF8.895813093704856
aF8.892534922547377
aF8.88559149544226
aF8.880728083506991
aF8.874995240144667
aF8.868983248691007
aF8.865089588723132
aF8.86081616839393
aF8.854793182517653
aF8.851091672220937
aF8.846149038492786
aF8.839990034614042
aF8.83197972664216
aF8.814220373974626
aF8.798670075685399
aF8.778018415000286
aF8.778018415000286
aF283.9737471826435
aF9.757586788547009
aF8.769976012786298
aF8.7692496799833
aF8.766574271949317
aF8.756099275350891
aF8.756264855838618
aF8.756108149860959
aF8.756100403576857
aF8.75609945419495
aF8.75609930489914
aF8.75609928026738
aF8.756099276169987
aF8.75609927548736
aF8.756099275373748
aF8.756099275354762
aF8.756099275351678
aF8.756099275351245
aF8.756099275351147
aF8.756099275351202
aF8.756099275350891
aF8.756099275351142
aF8.756099275350891
aF8.756099275350891
aF8.756099275351202
aF8.756099275350891
aF189.81274078513275
aF8.735387327842185
aF8.722180337987243
aF8.706657291171174
aF8.698377552275582
aF8.691873645075775
aF8.68801878157665
aF8.68304674942987
aF8.675264498285198
aF8.670485622248192
aF8.666221360500677
aF8.66328505233626
aF8.659756473735905
aF8.655606844054281
aF8.650372801806684
aF8.647708617148732
aF8.644626086743813
aF8.640253414813333
aF8.636507859793353
aF8.630427698891653
aF8.626248830779238
aF8.622975357775085
aF8.626606547767928
aF8.621448318958297
aF8.618820624086998
aF8.618820624086998
aF42.78545616992414
aF8.617437426767768
aF8.617329386123487
aF8.616512845277448
aF8.615733300325028
aF8.61502724016086
aF8.614884944486285
aF8.614848260211955
aF8.614842539194969
aF8.614842366119339
aF8.614842366119339
aF199.64114625775704
aF8.611958405036239
aF8.610036031251763
aF8.60549749084127
aF8.599618679254567
aF8.591872085828378
aF8.586298171163229
aF8.583210902501808
aF8.580106910760795
aF8.578151160309977
aF8.575893003828611
aF8.569791589284927
aF8.565621468947697
aF8.565391415169577
aF8.556036157593434
aF8.553815207939001
aF8.550220057274162
aF8.546718461925018
aF8.544367543483691
aF8.53982480289757
aF8.533626318104103
aF8.525534687426399
aF8.511375903533773
aF8.491110838387112
aF8.464694665264338
aF8.464694665264338
aF275.03903433618456
aF9.389105312368066
aF8.457899847401906
aF8.457266835676785
aF8.454928310941385
aF8.4454034433524
aF8.445549976145966
aF8.445411288719447
aF8.445404440542156
aF8.445403601492536
aF8.445403469495453
aF8.445403447705036
aF8.445403444078051
aF8.445403443473587
aF8.445403443372719
aF8.44540344335583
aF8.445403443353014
aF8.445403443352488
aF8.445403443352568
aF8.445403443352417
aF8.445403443352433
aF8.4454034433524
aF8.4454034433524
aF8.44540344335245
aF8.4454034433524
aF8.4454034433524
aF146.259840363241
aF8.422845519889064
aF8.409194055738311
aF8.397674398023776
aF8.387636311212972
aF8.383173962624246
aF8.380791066807879
aF8.376480990341465
aF8.37238922282555
aF8.367892931927086
aF8.362629748909749
aF8.359387604722158
aF8.354960794238309
aF8.353397562989553
aF8.350452000377548
aF8.34827087183765
aF8.345880309954138
aF8.341274025928959
aF8.34816381029732
aF8.33830987062147
aF8.332153910106031
aF8.32780002575
aF8.325510019067597
aF8.323837412880785
aF8.320980926248948
aF8.320980926248948
aF35.6602963875186
aF8.319754281523064
aF8.319616711333616
aF8.319150696172036
aF8.317296740941408
aF8.31701293580727
aF8.316968202480934
aF8.316960228992116
aF8.316959425929575
aF8.316959425929575
aF183.7126587662679
aF8.31401526756397
aF8.312296450433447
aF8.309798472859237
aF8.306882452520341
aF8.303066377736117
aF8.297113138017957
aF8.292583690389534
aF8.289643869926918
aF8.288142526565007
aF8.285824744468208
aF8.282309174333383
aF8.278409106165475
aF8.27600098374929
aF8.27329551193245
aF8.27092072838962
aF8.2669575958755
aF8.273206522016883
aF8.264089337634562
aF8.259588538795533
aF8.257137470910743
aF8.252326415539304
aF8.246801082204096
aF8.236847964058633
aF8.214202880574998
aF8.214202880574998
aF278.1808599453905
aF9.145695194896565
aF8.209698157621222
aF8.209395141428198
aF8.208279155847924
aF8.203624607026937
aF8.20375468102891
aF8.203628035753363
aF8.203624705501323
aF8.20362460238785
aF8.203624649114728
aF8.203624605330015
aF8.203624602704373
aF8.20362460238785
aF8.203756251644736
aF8.203628411868193
aF8.203624793975687
aF8.20362461861809
aF8.203624604762078
aF8.203624602840708
aF8.2036246024809
aF8.203624602407425
aF8.203624602391805
aF8.203624602388855
aF8.20362460238824
aF8.20362460238785
aF298.0791624039182
aF8.189342795985203
aF8.18166015989793
aF8.166102930498216
aF8.165225782861064
aF8.16290870146787
aF8.161205023435146
aF8.156768526777425
aF8.153178549674026
aF8.149020230477541
aF8.146575687901349
aF8.145292402080523
aF8.142901592817719
aF8.140966455568892
aF8.138401571192336
aF8.134926699182868
aF8.132108135195303
aF8.126233396765347
aF8.126473315892405
aF8.122471248738233
aF8.117640109937737
aF8.113435393877449
aF8.110705990136315
aF8.10794833634752
aF8.105638019697848
aF8.105638019697848
aF24.54349713650478
aF8.104798549283549
aF8.104700703511735
aF8.104346191605764
aF8.10313302209877
aF8.10324941957977
aF8.103138625772377
aF8.10313370823959
aF8.10313313579607
aF8.103133042228466
aF8.103133025707097
aF8.103133022747055
aF8.103133022215298
aF8.10313302211972
aF8.10313302210252
aF8.103133022099327
aF8.103133022098907
aF8.103133022098719
aF8.103133022098614
aF8.103133022098875
aF8.103133022098929
aF8.103133022098708
aF8.103133022098614
aF8.103249419581312
aF8.103138625772432
aF8.103133022098614
aF169.156199811097
aF8.100681799639274
aF8.099219061429299
aF8.09641990734719
aF8.091983131734008
aF8.087170306905536
aF8.08320031134613
aF8.079757485742997
aF8.076924483062879
aF8.07448289537777
aF8.071384653284206
aF8.069087604621528
aF8.067085541904731
aF8.065836269981983
aF8.063368573326738
aF8.061365891430771
aF8.059873911954476
aF8.059621833720627
aF8.05658357243329
aF8.054953095317119
aF8.052784158314063
aF8.049339710471015
aF8.042612952078866
aF8.030133530832435
aF8.012498624108595
aF8.012498624108595
aF139.1812768724177
aF8.163921149478572
aF8.009586943931058
aF8.0093533709337
aF8.00853482338312
aF8.004905676854476
aF8.004455258153158
aF8.004408003098982
aF8.004400364460587
aF8.004399559978113
aF8.004399559978113
aF184.94501674386677
aF7.995022110619022
aF7.988649192534979
aF7.979776188775956
aF7.972937357552425
aF7.968553412960631
aF7.966416475222244
aF7.9637069615391045
aF7.9609204145229935
aF7.960009325870335
aF7.959156085510644
aF7.957339400028696
aF7.955888855482456
aF7.953849447794571
aF7.951800868874052
aF7.94967385912134
aF7.945906020660043
aF7.943029845419485
aF7.939677271836464
aF7.933575108580465
aF7.930675585963092
aF7.926951421221414
aF7.926260525587383
aF7.921933769537574
aF7.919839394943992
aF7.919839394943992
aF32.73816117781904
aF7.918732035940286
aF7.9186420634499495
aF7.918323459511729
aF7.916911279101475
aF7.9168062918099515
aF7.916792154761177
aF7.9167904880353905
aF7.916790366225541
aF7.916790366225541
aF163.25100290520095
aF7.914583481464366
aF7.91335736421469
aF7.911312301107399
aF7.9082728848667365
aF7.90506336531096
aF7.901746955703718
aF7.896562556098132
aF7.892888460054943
aF7.889759978067776
aF7.886705467324521
aF7.884862158617775
aF7.883324591568796
aF7.882013042439482
aF7.881028847717429
aF7.880253176291388
aF7.878821321451559
aF7.878091937074117
aF7.876409080026399
aF7.873341161496837
aF7.8714203594670895
aF7.864277106680774
aF7.855258915195568
aF7.838694601622276
aF7.802597659892555
aF7.802597659892555
aF34.3909832743321
aF7.80128520754694
aF7.801051236840925
aF7.800218176206894
aF7.796801830983739
aF7.796622394918284
aF7.796610374486859
aF7.796608771447257
aF7.796608635042128
aF7.796608635042128
aF161.78857057491172
aF7.786165467213731
aF7.776378353098263
aF7.758833714473427
aF7.752862315751139
aF7.746945059075822
aF7.742651452561184
aF7.73966305311764
aF7.73512708799524
aF7.736624140483562
aF7.7334902898428375
aF7.731904057357644
aF7.730626667585302
aF7.729176789700709
aF7.727124714883869
aF7.724823424306809
aF7.72335755160953
aF7.722015711269709
aF7.720482081061515
aF7.719344061396388
aF7.717856744038787
aF7.716674438537298
aF7.715653485501184
aF7.714385450687692
aF7.71187388651617
aF7.71187388651617
aF64.36012207561578
aF7.7105353290428305
aF7.710078427760884
aF7.710017235552341
aF7.709843517684439
aF7.709139927378159
aF7.708700612581895
aF7.708586402297838
aF7.708558887575288
aF7.708554714681913
aF7.7085545280700245
aF7.7085545280700245
aF216.22090590949801
aF7.706274395614264
aF7.704969550976404
aF7.703327884665089
aF7.7016721170135884
aF7.699504549854288
aF7.696652008280431
aF7.693782973724648
aF7.692432765198282
aF7.690992428332388
aF7.689280652674707
aF7.687010043441292
aF7.684359751023035
aF7.681804587089937
aF7.678969442080204
aF7.677279831459691
aF7.674743311714517
aF7.6733467793754695
aF7.671632979759787
aF7.671285763637382
aF7.668520560161825
aF7.666350508435743
aF7.66368074658091
aF7.658822036607772
aF7.6592786879480474
aF7.658822036607772
aF151.17893819254232
aF7.859043261529585
aF7.655822841755198
aF7.655686080883115
aF7.655196811183259
aF7.652788531005875
aF7.652578882846408
aF7.652556049470318
aF7.652552934689174
aF7.652552664894005
aF7.652552664894005
aF283.10506117915065
aF7.648970199357642
aF7.6473820351382
aF7.643932566118764
aF7.6406949534822495
aF7.6373003823648755
aF7.635009822371547
aF7.63301659432992
aF7.631638288389578
aF7.630294044389165
aF7.628914016555001
aF7.626706794986996
aF7.625809201328867
aF7.624224083042186
aF7.622857902863505
aF7.621737717730213
aF7.619542291768852
aF7.62481326075606
aF7.618605434162861
aF7.617262352584769
aF7.615984324338818
aF7.614949231992037
aF7.613411502846665
aF7.611513125271248
aF7.608426183429424
aF7.608426183429424
aF42.66863842477321
aF7.607128209430108
aF7.607130856716401
aF7.607123631683521
aF7.607113062723812
aF7.607077992397867
aF7.606934879469502
aF7.606747961945425
aF7.606564088452949
aF7.60653581384895
aF7.606530277727005
aF7.606529755393286
aF7.606529754746385
aF7.606529754746385
aF264.9302615266009
aF7.604477004003851
aF7.603309645382247
aF7.601088490547365
aF7.599511490271791
aF7.59796040040578
aF7.596091565416376
aF7.593300213465806
aF7.59100425099107
aF7.589320825930013
aF7.58771895532886
aF7.586112851830018
aF7.584108372583755
aF7.581731556306593
aF7.580179059655402
aF7.578507118369668
aF7.577861999053416
aF7.57606393583489
aF7.5750303977114175
aF7.573797338505166
aF7.57193710526038
aF7.571785693985044
aF7.56882205562342
aF7.566978752126598
aF7.564028176628801
aF7.564028176628801
aF55.44718913113603
aF7.562532104677338
aF7.562426061238105
aF7.562390470514185
aF7.562033126587945
aF7.561733210895838
aF7.561422565556731
aF7.5614077478670225
aF7.561404593952073
aF7.561404191191896
aF7.561404191191896
aF294.4929772503899
aF7.55925433707219
aF7.55817133820859
aF7.555968134162976
aF7.553932009092259
aF7.550935343303225
aF7.548850515161773
aF7.546840824852916
aF7.546301398635492
aF7.545443460782588
aF7.544388418461608
aF7.5428548344696935
aF7.541463759741077
aF7.540339998649538
aF7.538530970731065
aF7.5367473971975585
aF7.5350378098508966
aF7.533255759349206
aF7.532310918918352
aF7.531440204958567
aF7.529691208732837
aF7.5283159573599985
aF7.524857010350324
aF7.518189087520936
aF7.506344912727519
aF7.506344912727519
aF50.92318343013893
aF7.504813686457428
aF7.5047133087014455
aF7.504615561692244
aF7.50415913317512
aF7.503544876679765
aF7.502875872484241
aF7.502678967684204
aF7.50263137733894
aF7.502622644319789
aF7.502622236284825
aF7.502622239320813
aF7.502622236285411
aF7.502622236284724
aF7.502622236284724
aF7.5026222362847115
aF7.502622236284955
aF7.5026222362847115
aF7.502622234558073
aF7.502622234558073
aF264.58155064740623
aF7.497313077528618
aF7.494011916663794
aF7.486778343124579
aF7.4850385214146105
aF7.4832114092824735
aF7.481740705041819
aF7.480023583428288
aF7.47745985279127
aF7.479375868932349
aF7.476092581166833
aF7.473906076441407
aF7.4722739266459826
aF7.470348551532414
aF7.468406687126135
aF7.466102765978537
aF7.464693020030378
aF7.463351168590595
aF7.461992040840082
aF7.460351520704572
aF7.459106300798309
aF7.458109300511973
aF7.457282611394909
aF7.456608574016471
aF7.455422255212985
aF7.455422255212985
aF46.927157734318016
aF7.454000346098876
aF7.453977041673927
aF7.453940324830093
aF7.4537509253446235
aF7.453469361766507
aF7.453126684687334
aF7.452997473131743
aF7.452960215240637
aF7.452953207649609
aF7.452952859156669
aF7.452952861620357
aF7.452952859157268
aF7.452952859156788
aF7.452952859156669
aF7.452952859156669
aF7.452952859156554
aF7.452952859156554
aF7.452952859156554
aF7.452952859156552
aF7.452952859156552
aF7.452952859156552
aF7.452952859156749
aF7.452952859156552
aF7.452952859156552
aF7.452952859156552
aF231.74624067328045
aF7.451689310939397
aF7.451225625623447
aF7.450513793111773
aF7.4496637248735755
aF7.4485255111372
aF7.446737883417448
aF7.445383710132415
aF7.444367539039714
aF7.443532503912218
aF7.442508489139962
aF7.4412202454823095
aF7.439489323563302
aF7.438049189635965
aF7.436104053669231
aF7.434483355396615
aF7.432736774562507
aF7.430666206583423
aF7.429292997150339
aF7.428033545496792
aF7.425142401263578
aF7.423572004862306
aF7.421674409037701
aF7.416521033472376
aF7.412078541927556
aF7.412078541927556
aF109.1074773688816
aF7.453497502539502
aF7.40957583712329
aF7.409523661055747
aF7.409161849200114
aF7.408690085376673
aF7.408140801605944
aF7.407910823248713
aF7.407864723993921
aF7.4078563688644135
aF7.407855751735932
aF7.4078557522290005
aF7.407855751737076
aF7.407855751736173
aF7.407855751735932
aF7.407855751735932
aF7.407855751736092
aF7.407855751735932
aF7.407855751735932
aF7.407855751736141
aF7.407855751735932
aF7.407855751735932
aF7.4078557517357915
aF7.4078557517357915
aF7.4078557517357915
aF7.4078557517357915
aF255.5867397932597
aF7.404821479204411
aF7.402935313203654
aF7.399147453961238
aF7.397175980512552
aF7.395384482217466
aF7.3928246525820125
aF7.3915527892361155
aF7.389221001508682
aF7.386934542702118
aF7.385628152380004
aF7.383560536719939
aF7.383437353898367
aF7.3823054790993385
aF7.381109477254872
aF7.379798790925804
aF7.378639316915349
aF7.377280375730686
aF7.376217537221605
aF7.375226075754178
aF7.374529667531789
aF7.373925162488838
aF7.373125843953073
aF7.3722547724205505
aF7.3705327281203274
aF7.3705327281203274
aF24.622490722258007
aF7.369723179928203
aF7.369689666771576
aF7.369568632310692
aF7.369116353454441
aF7.369165517219722
aF7.369114260067084
aF7.369193242766293
aF7.369116680289052
aF7.369114409316939
aF7.369114277361897
aF7.369114263079931
aF7.369114260667697
aF7.369114260190674
aF7.369114260092623
aF7.369114260072299
aF7.369114260067887
aF7.3691142600671355
aF7.369114260067139
aF7.369114260066947
aF7.3691142600669775
aF7.369114260066976
aF7.3691142600670805
aF7.369114260066947
aF7.369193242768562
aF7.369114260066947
aF198.59081561196675
aF7.3676959251305405
aF7.366879044413224
aF7.365936866334875
aF7.365017960454468
aF7.36379862177005
aF7.3622728565813365
aF7.360418897578436
aF7.359873262041676
aF7.358410481146226
aF7.357823157017675
aF7.356609534814799
aF7.355994262432528
aF7.35510418386084
aF7.353654938207288
aF7.354649067872128
aF7.352715599099881
aF7.351320587897781
aF7.350019775737449
aF7.349499977358088
aF7.34812163638883
aF7.34712123444173
aF7.345435607505053
aF7.343645291672688
aF7.341276090219774
aF7.341276090219774
aF35.03320725761691
aF7.340107159284376
aF7.34006306467783
aF7.339642809948042
aF7.339237410437812
aF7.338853953215406
aF7.338766604055625
aF7.338743321567396
aF7.338739686769957
aF7.338739563361319
aF7.338739563361319
aF160.33599417293937
aF7.336671002741449
aF7.335093588475223
aF7.332363034706379
aF7.330075647600717
aF7.328928678203162
aF7.32824420756161
aF7.326579729249257
aF7.325190500184842
aF7.32299595996496
aF7.32100696227063
aF7.3187507279546224
aF7.318408545046614
aF7.31756487719465
aF7.3168070592334065
aF7.315437219359808
aF7.314106459188443
aF7.313340322229607
aF7.314657118842206
aF7.3126509343032655
aF7.3116518428465795
aF7.311099207036175
aF7.309988808954159
aF7.308662954916272
aF7.305475817018134
aF7.305475817018134
aF17.884578196789306
aF7.304897339887972
aF7.30486373563553
aF7.304573316922138
aF7.304450364161774
aF7.304493367980374
aF7.304434777144214
aF7.304507216820916
aF7.304433729101042
aF7.304507247699087
aF7.304436794836711
aF7.304434065890698
aF7.304433785070364
aF7.304433739482661
aF7.304433731070775
aF7.304433729476351
aF7.304433729172629
aF7.304433729114644
aF7.304433729103703
aF7.304433729101616
aF7.304433729101339
aF7.3044337291009285
aF7.304433729100996
aF7.304433729100948
aF7.304433729101021
aF7.3044337291009285
aF229.575708989229
aF7.302200906063918
aF7.301136517945498
aF7.299407398256777
aF7.2987297813780945
aF7.29807909853298
aF7.297326908098917
aF7.296476965586374
aF7.295248355225192
aF7.293869696421769
aF7.292651606131445
aF7.292141520438761
aF7.291649870764919
aF7.290859903275049
aF7.289345383489616
aF7.287503634574172
aF7.285367498131354
aF7.283861655075976
aF7.282596107235184
aF7.281151392446997
aF7.279562916640707
aF7.278352447883517
aF7.277048582549064
aF7.275293166104296
aF7.271285386309959
aF7.271285386309959
aF33.69213783810748
aF7.270145179656906
aF7.270097001844446
aF7.269977504585576
aF7.269491861890307
aF7.268933262515581
aF7.2687497648081365
aF7.268740541050764
aF7.268739399722682
aF7.268739305525347
aF7.268739305525347
aF246.34327776981598
aF7.266470610646952
aF7.265129363056234
aF7.262019128086502
aF7.260425800722151
aF7.259035066366065
aF7.255913164050703
aF7.253955665021394
aF7.251096301294082
aF7.250404753203561
aF7.249199493471734
aF7.248651892350818
aF7.2473240987919105
aF7.245950786719021
aF7.244498770293632
aF7.243380583227436
aF7.242581961919983
aF7.242113585897634
aF7.241789718309706
aF7.241291441918214
aF7.240872853680484
aF7.2402508397219485
aF7.23893591507443
aF7.237367228124407
aF7.2354403846533835
aF7.2354403846533835
aF17.111306528634344
aF7.234868496882058
aF7.234821207712095
aF7.234667534238644
aF7.234282887537379
aF7.234089603840779
aF7.234136350112374
aF7.234089131802964
aF7.234147922379771
aF7.2340910356332095
aF7.234089269771845
aF7.234089150516965
aF7.234089135246318
aF7.234089132492576
aF7.234089131943499
aF7.234089131831599
aF7.234089131808785
aF7.234089131803874
aF7.234089131803158
aF7.2340891318028895
aF7.2340891318028735
aF7.234089131803048
aF7.234089131802806
aF7.234089131803065
aF7.234089131802806
aF7.234089131802806
aF207.3175203053523
aF7.232532190344955
aF7.23170462431713
aF7.230190230379435
aF7.229763735084628
aF7.229021960227419
aF7.228575115090528
aF7.227895091284836
aF7.227133452505704
aF7.2255134829486725
aF7.225626581253998
aF7.224688406284436
aF7.223499795024129
aF7.222497940751779
aF7.221477834228363
aF7.220291013713279
aF7.219305292861524
aF7.218449586916593
aF7.217364518048846
aF7.21579962240275
aF7.214431839467288
aF7.213102083226396
aF7.212526852488498
aF7.211919829717928
aF7.21002092752566
aF7.21002092752566
aF36.67326437867672
aF7.208792462021984
aF7.208755571416491
aF7.208538853940901
aF7.208206335414772
aF7.207764892081249
aF7.207469507935826
aF7.2074569914202495
aF7.207455181635176
aF7.2074549971620065
aF7.2074549971620065
aF282.45960647403297
aF7.206131883066206
aF7.2054738310768816
aF7.203811584187065
aF7.202203366340056
aF7.199842550748105
aF7.197883589856932
aF7.196200078164116
aF7.195432982272353
aF7.194523899155042
aF7.193340280096148
aF7.192394349086449
aF7.191248591990782
aF7.190318566549859
aF7.189264105536713
aF7.188445187075192
aF7.1882517410473845
aF7.187723931411732
aF7.187199836888434
aF7.186673927247755
aF7.185821959346642
aF7.184449888006927
aF7.182187693505531
aF7.179727478240423
aF7.176493444383549
aF7.176493444383549
aF29.664383223029972
aF7.175464993768577
aF7.175413065101093
aF7.1752242260243655
aF7.17419955012428
aF7.1741361467955596
aF7.174127887209751
aF7.174127040937087
aF7.174126985435301
aF7.174126985435301
aF208.34693316954025
aF7.172034397278013
aF7.170596336529766
aF7.167861091861685
aF7.167096906642044
aF7.166058582069995
aF7.165257099611571
aF7.1644892705625
aF7.163476934913451
aF7.162860607171128
aF7.161922921648127
aF7.161440723512905
aF7.160815986765362
aF7.160095625494712
aF7.1594050085179735
aF7.157868617683837
aF7.157034082934482
aF7.155934866168643
aF7.15244536800026
aF7.151524993676452
aF7.15058524516451
aF7.149601522709645
aF7.148916269030279
aF7.147402622470787
aF7.1455317062119
aF7.1455317062119
aF44.58571765261851
aF7.144125817222939
aF7.144108780240618
aF7.144082596986111
aF7.14393782701079
aF7.143719564921641
aF7.143446926534418
aF7.143334321473233
aF7.14330285600189
aF7.143296920345584
aF7.143296588989443
aF7.1432965910438035
aF7.143296588990472
aF7.143296588989477
aF7.143296588989443
aF7.143296588989427
aF7.143296588989511
aF7.143296588989427
aF7.143296588989427
aF7.143296588989726
aF7.143296588989427
aF7.143296588989427
aF7.143296588989575
aF7.143296588989427
aF7.143296588989427
aF7.143296588989427
aF280.7878943099289
aF7.142004845053073
aF7.141251333560328
aF7.138751031010269
aF7.137680323564611
aF7.136553208449097
aF7.135351498382077
aF7.1342453687832705
aF7.132526017105423
aF7.132704555207917
aF7.131739735427855
aF7.130450054273904
aF7.12934014238116
aF7.128510213375808
aF7.12766031824038
aF7.127033117747807
aF7.126407606966946
aF7.125705282778219
aF7.125053479252037
aF7.124495066719529
aF7.124067109926726
aF7.123564617349951
aF7.122652864398791
aF7.122000689614014
aF7.121479285059397
aF7.121479285059397
aF15.58851936882294
aF7.120992669817182
aF7.120972958192432
aF7.120894086063062
aF7.120832641596968
aF7.120819795711853
aF7.120862418150505
aF7.120822216361596
aF7.120820110527761
aF7.1208198469181045
aF7.120819804412147
aF7.120819797201616
aF7.120819795967504
aF7.120819795755599
aF7.12081979571926
aF7.120819795713404
aF7.120819795712038
aF7.120819795711865
aF7.120819795711856
aF7.120819795712114
aF7.1208197957117445
aF7.1208197957117445
aF7.120819795712098
aF7.1208197957117445
aF7.120819795711865
aF7.1208197957117445
aF250.2585562533854
aF7.120323544010965
aF7.120034735440106
aF7.118923433572078
aF7.1177668755934445
aF7.116629958567842
aF7.115661273185426
aF7.114732341901673
aF7.114261372807766
aF7.113717368485064
aF7.113114689794234
aF7.1124447813462695
aF7.111602780466331
aF7.110301473110626
aF7.109487927349781
aF7.108560616202636
aF7.107597581341137
aF7.107053558062317
aF7.10638419477737
aF7.104969981772507
aF7.104019120065351
aF7.102521407661703
aF7.100463859882584
aF7.097265224961054
aF7.092253394985816
aF7.092253394985816
aF30.660867416062633
aF7.091177027044624
aF7.09112379953598
aF7.090937271074466
aF7.089948844003207
aF7.089763498799968
aF7.089728181347267
aF7.089722048489797
aF7.089721399209285
aF7.089721391329059
aF7.089721391329059
aF204.90239629533374
aF7.087034210219414
aF7.085355251382762
aF7.083935842059963
aF7.0828356254164895
aF7.081484009666344
aF7.080826877767228
aF7.079718088474385
aF7.079301216364774
aF7.078387166457613
aF7.078644792046159
aF7.077938375589596
aF7.077382684456234
aF7.076484035777225
aF7.076060052851064
aF7.075274675766016
aF7.074743082164693
aF7.074106691306433
aF7.072957330771359
aF7.0740060393598245
aF7.07237575449739
aF7.071471024243612
aF7.0708697119857415
aF7.070317689141568
aF7.070145301933097
aF7.070145301933097
aF18.481990312704536
aF7.069530092500981
aF7.069500498584711
aF7.069268126621514
aF7.0691320534694775
aF7.069114911233029
aF7.069145663469762
aF7.069116916640796
aF7.069115125444068
aF7.069114935633424
aF7.069114914033104
aF7.069114911554916
aF7.069114911269997
aF7.0691149112376195
aF7.069114911233932
aF7.06911491123344
aF7.06911491123333
aF7.069114911233029
aF7.069114911233029
aF7.069114911233106
aF7.069114911233029
aF7.069114911233029
aF7.069114911233042
aF7.069114911233029
aF7.069114911233029
aF7.069114911233029
aF384.7939023490495
aF7.068374428404676
aF7.068181004858362
aF7.067533538628503
aF7.066868792224531
aF7.065958202512622
aF7.064945740057594
aF7.063239833807806
aF7.062195841818097
aF7.06134538094555
aF7.060911485393186
aF7.060342427318561
aF7.059632509250164
aF7.058826076651249
aF7.058156585320239
aF7.057497480043253
aF7.056969843593114
aF7.056338868539935
aF7.055591631615252
aF7.054831126958849
aF7.053978929927835
aF7.0528994905513365
aF7.051297271822614
aF7.049149758061356
aF7.045727978383365
aF7.045727978383365
aF29.075985186897476
aF7.04472954111108
aF7.044704689323352
aF7.044614797105595
aF7.044111917101281
aF7.044072231765501
aF7.044065102108146
aF7.044064370005344
aF7.044064324071416
aF7.044064324071416
aF201.27520172314985
aF7.041554520957041
aF7.0399333819043495
aF7.037393288749346
aF7.0365774314558305
aF7.035710321573276
aF7.035008260581153
aF7.034424510534608
aF7.0336160968006745
aF7.033403108078195
aF7.032598411012147
aF7.032151399032166
aF7.031520728421439
aF7.0309711423033185
aF7.030441243907399
aF7.03002017196131
aF7.029016035608818
aF7.028466127264519
aF7.027477705682253
aF7.026197448587125
aF7.025653124894777
aF7.025005382720364
aF7.0242958355336125
aF7.023808701851793
aF7.022670171602565
aF7.022670171602565
aF12.502201464483363
aF7.022292032593713
aF7.022262391622263
aF7.022168881635777
aF7.021971621110415
aF7.021823211183829
aF7.021860843223362
aF7.021821964193267
aF7.021868144903259
aF7.021823424477493
aF7.021822063629406
aF7.021821976973671
aF7.021821966507032
aF7.021821964656475
aF7.021821964288151
aF7.021821964212991
aF7.021821964197285
aF7.021821964194071
aF7.021821964193403
aF7.021821964193121
aF7.021821964193542
aF7.021821964193206
aF7.02182196419318
aF7.021821964193121
aF7.0220016793911615
aF7.021821964193121
aF266.1236492999833
aF7.021140703930229
aF7.020831452126181
aF7.020052435586436
aF7.019332512605304
aF7.018559618458273
aF7.016525122802024
aF7.016007694295487
aF7.015135626081493
aF7.014687149448244
aF7.01376637375461
aF7.012930602723449
aF7.013900307983379
aF7.012578487856381
aF7.011925817467684
aF7.011450827974349
aF7.010925331519065
aF7.010920300631618
aF7.010429580297991
aF7.010180591032002
aF7.009966904200583
aF7.009354188321916
aF7.009240459823504
aF7.007711279344594
aF7.006741300334745
aF7.006741300334745
aF10.626785378479937
aF7.00645947930972
aF7.006438686655304
aF7.006370743132205
aF7.006215698803354
aF7.00614644644288
aF7.006184046213846
aF7.006147968048628
aF7.006146600206996
aF7.006146471547119
aF7.0061464511968214
aF7.006146447373421
aF7.006146446626126
aF7.006146446479047
aF7.0061464464500816
aF7.006146446444115
aF7.006146446442752
aF7.006146446444019
aF7.006146446443138
aF7.006146446443214
aF7.006146446442752
aF7.006195848535235
aF7.006147536125329
aF7.006146435955463
aF7.00614695907028
aF7.006146435955463
aF147.2441288599746
aF7.005442251956708
aF7.0049030264129275
aF7.004026088547864
aF7.003227349085176
aF7.0025685186492375
aF7.001960894770443
aF7.001323097154799
aF7.001010612988216
aF7.000784659224859
aF7.000438951369713
aF7.000124256068647
aF6.999455677258858
aF6.99905778872602
aF6.997948452881548
aF6.997276234050419
aF6.996662619045422
aF6.9956300972321745
aF6.996580643543011
aF6.995058033265732
aF6.994446875004151
aF6.993891358269471
aF6.993235996771192
aF6.992292622012856
aF6.990706136517366
aF6.990706136517366
aF15.713515563818053
aF6.99017699499376
aF6.990136443210728
aF6.9900099515631915
aF6.989730214980051
aF6.989471871604268
aF6.989498839541664
aF6.989463518781939
aF6.989506466764423
aF6.98946288614864
aF6.989506257056361
aF6.989464678081722
aF6.989463081211461
aF6.989462918516555
aF6.989462892164514
aF6.989462887293865
aF6.98946288636747
aF6.989462886190722
aF6.989462886156819
aF6.9894628861501715
aF6.9894628861488926
aF6.989462886148896
aF6.989462886148651
aF6.9894628861487735
aF6.989462886148548
aF6.989462886148548
aF231.96407183775779
aF6.9885849948075816
aF6.9880558726490705
aF6.986940231593552
aF6.986240156630803
aF6.98567164524489
aF6.984764560540533
aF6.983989647690164
aF6.9829026106526
aF6.981891162177838
aF6.981445996959156
aF6.980949510511779
aF6.980411679865886
aF6.97977436515472
aF6.9791706306557835
aF6.978737390449282
aF6.978292043662773
aF6.977961814541633
aF6.977506937948592
aF6.977220607497971
aF6.97691377353485
aF6.976399772048843
aF6.975840834434598
aF6.975284841340127
aF6.9742337471138445
aF6.9742337471138445
aF8.474349547438523
aF6.974075310409049
aF6.974062514465302
aF6.974016385773611
aF6.973857493125998
aF6.973888484913347
aF6.973858101377775
aF6.973857441655179
aF6.973857726451575
aF6.973857452603433
aF6.973857441878041
aF6.973857441655179
aF6.97390523794815
aF6.973858646472534
aF6.973857461851395
aF6.973857436201737
aF6.973857445026168
aF6.973857435444469
aF6.9738574395724395
aF6.973857435605584
aF6.973857435447044
aF6.973857435444469
aF6.973905457026834
aF6.973858749661526
aF6.973857484577305
aF6.973857435444469
aF256.3914342432007
aF6.973317269750336
aF6.973007543043437
aF6.972446701188396
aF6.9720187277671535
aF6.971557187181174
aF6.970641387648266
aF6.970316650978328
aF6.970073273710719
aF6.969451985341006
aF6.969103412471297
aF6.968522423630217
aF6.967954868301705
aF6.967223492907765
aF6.966623745178763
aF6.965990778148406
aF6.965261681030816
aF6.964509428020726
aF6.9638049326884754
aF6.963522048793058
aF6.96298483589867
aF6.962484343363592
aF6.961976310962184
aF6.960675844352309
aF6.958464401163875
aF6.958464401163875
aF10.770395639612776
aF6.958155535024037
aF6.958122395151589
aF6.9580097941487065
aF6.957657307235101
aF6.95754890334303
aF6.957582039308511
aF6.957549691959011
aF6.95754889393184
aF6.957549272359181
aF6.957548924173635
aF6.957548898238036
aF6.95754889393184
aF6.957588565289811
aF6.95754960654109
aF6.957548829050779
aF6.957549162053986
aF6.957548840501376
aF6.95754882898566
aF6.957548834503367
aF6.957548829474057
aF6.95754882898566
aF6.957588079835338
aF6.957549850535461
aF6.957548855103358
aF6.95754882898566
aF355.1062817367979
aF6.954898786639793
aF6.954118302138797
aF6.95215536916006
aF6.9515846874340586
aF6.951075822446837
aF6.950596831709303
aF6.950073470359104
aF6.949342234664362
aF6.9493827327359
aF6.948933441805
aF6.948226553135701
aF6.947780020533784
aF6.947380999804002
aF6.946993768384353
aF6.946586046252667
aF6.945875814285765
aF6.945300422671446
aF6.944728209748417
aF6.944161589395019
aF6.943629460983882
aF6.9432197911964995
aF6.942494431171028
aF6.942227929570871
aF6.941983110578704
aF6.941983110578704
aF9.490484944934451
aF6.941752218840026
aF6.941729197749053
aF6.941648779836324
aF6.941373397465783
aF6.941345026423399
aF6.9413760659124755
aF6.941347033096287
aF6.941345270386492
aF6.941345059450489
aF6.941345030964207
aF6.941345027048849
aF6.941345026509605
aF6.941345026435334
aF6.941345026425035
aF6.9413450264235195
aF6.941345026423374
aF6.941345026423477
aF6.94134502642318
aF6.941345026423546
aF6.94134502642318
aF6.941378549045593
aF6.941346786741576
aF6.941345167918779
aF6.941345038242355
aF6.94134502642318
aF259.08305604476476
aF6.941024720353598
aF6.940879685584514
aF6.940492027505227
aF6.939961293262314
aF6.939347246531588
aF6.938657778687379
aF6.938024164572248
aF6.93765873565941
aF6.937328507272024
aF6.936933638132157
aF6.936517823218763
aF6.936199629920949
aF6.935418627082575
aF6.935214990991982
aF6.934670076781263
aF6.934215963404524
aF6.933878316991002
aF6.933329228248429
aF6.933845686883959
aF6.932940420236482
aF6.932437330635507
aF6.931810067207195
aF6.930761162107794
aF6.92967250705634
aF6.92967250705634
aF12.466247868195374
aF6.929291276410641
aF6.92926321145911
aF6.9290089412898705
aF6.928868626403114
aF6.92885222357854
aF6.928872295549125
aF6.928853374966076
aF6.928852316923127
aF6.928852231383146
aF6.9288522242327115
aF6.928852223633134
aF6.928852223583114
aF6.928852223578639
aF6.928852223578524
aF6.928852223578842
aF6.928852223578428
aF6.928852223578479
aF6.928852223578428
aF6.929159028091123
aF6.92885639580115
aF6.928852587387459
aF6.928852266062849
aF6.928852228736426
aF6.928852224207585
aF6.928852223578428
aF228.90251990867617
aF6.9281104013879595
aF6.927621740437473
aF6.926557412788467
aF6.9257813515554645
aF6.925189691032001
aF6.924787868275233
aF6.924228807641624
aF6.923813924868682
aF6.923422622565564
aF6.922999200151542
aF6.92273813320741
aF6.922400783867838
aF6.921749062345569
aF6.921256457964043
aF6.920949883980725
aF6.920110140027328
aF6.919774299492161
aF6.9193122878610716
aF6.918567978880491
aF6.918131621209168
aF6.9181302147567845
aF6.91784418415018
aF6.917387584179284
aF6.916835231581528
aF6.916835231581528
aF9.299655646237618
aF6.9166292894784505
aF6.916617908764907
aF6.916580274928787
aF6.916502139699981
aF6.916478466779003
aF6.916511473880519
aF6.916480459302326
aF6.916478723570847
aF6.9164785058480795
aF6.916478472893502
aF6.916478467740294
aF6.91647846693021
aF6.916478466802536
aF6.9164784667829355
aF6.91647846677953
aF6.916478466779221
aF6.916478466779001
aF6.916478466778875
aF6.916478466779255
aF6.916478466778894
aF6.916478466778875
aF6.916486960085319
aF6.916477916367288
aF6.9164884683095345
aF6.916477916367288
aF135.09508902682768
aF6.916129849469911
aF6.915877205348716
aF6.915488299606569
aF6.9149446024953924
aF6.914399210429334
aF6.91398005972761
aF6.913371522701716
aF6.912997835159146
aF6.9126556535883505
aF6.9122842168823215
aF6.912011172539545
aF6.911685244875219
aF6.910883835143865
aF6.910899902180683
aF6.910527756503178
aF6.910202855837616
aF6.909614970002318
aF6.909513736988899
aF6.909150080049143
aF6.90878509438968
aF6.9084924606272295
aF6.907790114607344
aF6.908188135572242
aF6.9073870897540885
aF6.9073870897540885
aF8.98702673856572
aF6.907194707423097
aF6.907180982576046
aF6.9071334633320305
aF6.906991187188877
aF6.906979278042584
aF6.907008545064908
aF6.906981205465607
aF6.906979505242852
aF6.906979307383303
aF6.9069792818787175
aF6.906979278544693
aF6.906979278108128
aF6.906979278051271
aF6.906979278043211
aF6.906979278042707
aF6.906979278042698
aF6.906979278042323
aF6.906979278042323
aF6.906979278042247
aF6.906979278042357
aF6.906979278042247
aF6.931505817020341
aF6.907002965374662
aF6.906980876539384
aF6.906979278042247
aF329.89228798388297
aF6.906432093839733
aF6.9062462189541645
aF6.905288747484475
aF6.904563738632909
aF6.904053083294773
aF6.903785632542128
aF6.903428473299558
aF6.902939413990643
aF6.902747006771403
aF6.9021985921391416
aF6.902068035782037
aF6.901835459259392
aF6.9014701982080595
aF6.901088925718577
aF6.900525914462477
aF6.899916776529304
aF6.899417998655661
aF6.899295876868932
aF6.898525258773217
aF6.89832803504874
aF6.897972591538158
aF6.897395981008705
aF6.896649885058421
aF6.895833018116871
aF6.895833018116871
aF8.924205814640999
aF6.895644568086579
aF6.895631607484582
aF6.895586787919445
aF6.89545464833577
aF6.89544275580522
aF6.895471336088985
aF6.895444638553386
aF6.895442978961444
aF6.895442784838048
aF6.895442759630711
aF6.895442756310006
aF6.895442755871821
aF6.895442755814091
aF6.895442755806544
aF6.895442755805465
aF6.895442755805266
aF6.89544275580522
aF6.895442755805279
aF6.895442755805206
aF6.895442755805325
aF6.895442755805206
aF6.895442755805206
aF6.895442755805428
aF6.895442755805206
aF6.895442755805206
aF134.10418178893337
aF6.894762396377324
aF6.894323578789381
aF6.893811262879703
aF6.893401558516979
aF6.892975086474992
aF6.892452417742534
aF6.89201685105858
aF6.891567159541335
aF6.891171817160693
aF6.890813153266203
aF6.890513800570238
aF6.890113661498354
aF6.889609756681775
aF6.889095793184719
aF6.888737633280735
aF6.8884885817965245
aF6.888260045778614
aF6.88793681576534
aF6.887558132104086
aF6.887137306773733
aF6.886912477334068
aF6.886594800122856
aF6.885748201568491
aF6.884193482623406
aF6.884193482623406
aF8.413266977963648
aF6.884033019333987
aF6.884018985470004
aF6.883968428490391
aF6.883778826886012
aF6.883798699585839
aF6.883776271399071
aF6.883816882345599
aF6.883776926078685
aF6.883776182003951
aF6.883776483821862
aF6.883776184256865
aF6.883776179819051
aF6.883776180533566
aF6.883776179252466
aF6.8837761794993675
aF6.8837761791108605
aF6.8837761791108605
aF6.883817317944036
aF6.8837772896901726
aF6.883776217019685
aF6.8837761791854035
aF6.883776178775722
aF6.883776178753001
aF6.883776178676126
aF6.883776178676126
aF337.5030054882242
aF6.8829677449011
aF6.882744373932187
aF6.882512387470102
aF6.882353613643319
aF6.882185291090931
aF6.881606824731101
aF6.8812864142131005
aF6.8809021114650495
aF6.881461927953353
aF6.880590186843834
aF6.880060195525687
aF6.879818082652484
aF6.879356827152593
aF6.879167823206695
aF6.8787202573708655
aF6.8783271933601515
aF6.877892906591205
aF6.877240323840651
aF6.876654106700823
aF6.875396780082275
aF6.874766422624992
aF6.874137101510595
aF6.873442166299306
aF6.872214580022623
aF6.872214580022623
aF11.415652209419541
aF6.871873013568317
aF6.871841840385345
aF6.871740605560975
aF6.871478037589792
aF6.871300735939641
aF6.871322022625256
aF6.8712954092593215
aF6.871329920081674
aF6.871295001129765
aF6.8713296430814665
aF6.871296441317575
aF6.871295158895419
aF6.871295027336313
aF6.8712950059939235
aF6.871295002053557
aF6.871295001306102
aF6.871295001163524
aF6.871295001136108
aF6.871295001130822
aF6.871295001130084
aF6.87129500112977
aF6.871295001129662
aF6.87129500112948
aF6.871295001129891
aF6.87129500112948
aF293.81951575861194
aF6.870632069457887
aF6.8703069598057205
aF6.869011307478743
aF6.8684653270973275
aF6.867967202242713
aF6.86766489528177
aF6.867221626785767
aF6.866808360592586
aF6.8665538355495865
aF6.866181563492525
aF6.865897400309036
aF6.865555541337837
aF6.865418855539845
aF6.864825703364378
aF6.8645793447700925
aF6.864284144475739
aF6.863865903775881
aF6.864166938244047
aF6.863600538824244
aF6.863197722537281
aF6.862957137013083
aF6.8627786796485335
aF6.862573894086275
aF6.861828020607941
aF6.861828020607941
aF7.713434284984835
aF6.861718792504362
aF6.861709662975359
aF6.861675817872854
aF6.861557838979623
aF6.861583796653809
aF6.861559317740678
aF6.861557962551837
aF6.8615578496812475
aF6.861557839909425
aF6.861557839060545
aF6.861557838986908
aF6.861557838980364
aF6.861557838979605
aF6.861557838980289
aF6.861557838979735
aF6.861557838979886
aF6.861557838979605
aF6.861595168123266
aF6.861559256452207
aF6.8615579802412565
aF6.861557855147408
aF6.861557840861362
aF6.861557839199222
aF6.86155783900546
aF6.861557838979605
aF152.65940146251256
aF6.861237500587304
aF6.861048940451601
aF6.860915732269904
aF6.860677095202476
aF6.860385191800029
aF6.860066446967833
aF6.859414644466174
aF6.859046428951849
aF6.858619740634463
aF6.858272234339193
aF6.85809019413607
aF6.857804670949584
aF6.857410211200973
aF6.85702485776056
aF6.856494123921429
aF6.85573932830766
aF6.855665747477696
aF6.8551565316585155
aF6.854934819781116
aF6.854387926679156
aF6.853447682906756
aF6.852387517098174
aF6.850733977633379
aF6.849156658125784
aF6.849156658125784
aF11.360841570725285
aF6.848822276200144
aF6.848795933330923
aF6.848712776508258
aF6.848528585491238
aF6.848362791425048
aF6.848387048739967
aF6.848357583197023
aF6.848391673644903
aF6.848357594741065
aF6.848357340090752
aF6.848357320801725
aF6.848391576879919
aF6.8483585899580035
aF6.848357440962486
aF6.848357339923879
aF6.8483573244112605
aF6.848357321510376
aF6.84835732094186
aF6.848357320829516
aF6.848357320806995
aF6.848357320802906
aF6.848357320801886
aF6.84835732080195
aF6.848357320801567
aF6.848357320801567
aF188.19437406279792
aF6.847581394804418
aF6.846937758947151
aF6.8455856623162035
aF6.844977415182832
aF6.844409904187902
aF6.84410948505125
aF6.843828674256358
aF6.8434862960274945
aF6.843242429993907
aF6.843009706762988
aF6.84281430641059
aF6.842593676825523
aF6.842396137863991
aF6.842026536605276
aF6.8418358683049885
aF6.84151550998925
aF6.841097273401688
aF6.841004364446254
aF6.8403610644641795
aF6.840167289994399
aF6.840031459913261
aF6.83982341841171
aF6.8394782263296
aF6.839013431890066
aF6.839013431890066
aF7.647391088748966
aF6.838906161932023
aF6.8388960136672665
aF6.838858268328451
aF6.838721169357646
aF6.838744216772854
aF6.838722386818473
aF6.8387212596744344
aF6.838721176244006
aF6.838721169884089
aF6.838721169398209
aF6.838721169360884
aF6.838721169358044
aF6.838721169357756
aF6.838721169357788
aF6.838721169357646
aF6.838721169357646
aF6.838721169357932
aF6.838721169357646
aF6.838721169357646
aF6.83872116935766
aF6.838721169357646
aF6.838721169357646
aF6.838721169357768
aF6.838721169357646
aF6.838721169357646
aF177.28086880704842
aF6.838390481105872
aF6.838216024446838
aF6.838031469034805
aF6.83779242031015
aF6.837496675002177
aF6.836839289478307
aF6.836640788524672
aF6.83643382517883
aF6.836152193675048
aF6.8358422057473085
aF6.835660542681232
aF6.835373680104903
aF6.835084509769777
aF6.834842797691863
aF6.8346161225163975
aF6.834143359652096
aF6.833855270962506
aF6.83362667436522
aF6.833443082844973
aF6.833068456586723
aF6.832590268016586
aF6.83209137712366
aF6.831142577223135
aF6.829480094187881
aF6.829480094187881
aF9.644137223725775
aF6.829242302758251
aF6.8292250184533625
aF6.829167737725612
aF6.829021419782791
aF6.828948320196849
aF6.828974937844913
aF6.828948413054645
aF6.828948151366623
aF6.828948176334221
aF6.828980952800896
aF6.828949209719534
aF6.828948246005849
aF6.828948185204657
aF6.828948177935066
aF6.828948176654899
aF6.828948176399896
aF6.828948176347717
aF6.8289481763371445
aF6.828948176334913
aF6.828948176334265
aF6.828948176334178
aF6.8289481763341815
aF6.828948176334508
aF6.828948176334375
aF6.828948151366623
aF186.80785010830053
aF6.828291443255502
aF6.827855388576497
aF6.8270858171446225
aF6.826871998200673
aF6.826452159365537
aF6.826212692607562
aF6.826041415198695
aF6.825736500103595
aF6.825802767299551
aF6.825558429099212
aF6.825271881177578
aF6.825031040847229
aF6.824743149792852
aF6.824466525191982
aF6.824102967448807
aF6.823751891488099
aF6.823369984937397
aF6.823086752301986
aF6.822706561055922
aF6.82246250109022
aF6.822158811497532
aF6.822200151263225
aF6.822006047966466
aF6.821817857095795
aF6.821817857095795
aF7.634435580967525
aF6.821713825151335
aF6.8217057960494465
aF6.821676010853654
aF6.821569198157476
aF6.8215937788809295
aF6.82157065244318
aF6.821569327485973
aF6.821569210140556
aF6.821569199272179
aF6.821569198261075
aF6.821569198167058
aF6.8215691981580875
aF6.821569198157237
aF6.821569198157359
aF6.8215691981575315
aF6.821569198157237
aF6.833509088646625
aF6.821586094990916
aF6.821570304693932
aF6.8215693015976075
aF6.821569208195561
aF6.821569199135066
aF6.821569198252721
aF6.821569198166598
aF6.821569198157237
aF198.9922693581279
aF6.821412680418199
aF6.821319620940498
aF6.821083369290321
aF6.820752015291465
aF6.820317697325535
aF6.819857931246229
aF6.819344406461244
aF6.819118420651332
aF6.818869346303407
aF6.818691412226716
aF6.818481835838817
aF6.818140131029548
aF6.817795302261597
aF6.817471451930384
aF6.817215082844189
aF6.817003316674905
aF6.816822057279239
aF6.816602668324311
aF6.816272032201146
aF6.815696872872396
aF6.814887929318552
aF6.81390964022628
aF6.812393509314424
aF6.809136296235572
aF6.809136296235572
aF9.910922132719502
aF6.808881521039067
aF6.808862904844904
aF6.808802183709965
aF6.808655537112148
aF6.808560982495244
aF6.808586085726354
aF6.808559658621199
aF6.808591330213922
aF6.808560528474533
aF6.808559691918038
aF6.808559659622549
aF6.808559658568509
aF6.808559658598506
aF6.808559658568765
aF6.808559658588793
aF6.808559658573095
aF6.808559658584571
aF6.808559658576307
aF6.80855965858259
aF6.808559658584571
aF6.808591172874221
aF6.808560500954252
aF6.808559685526413
aF6.808559658167173
aF6.808559658167173
aF280.11146129045363
aF6.807121375296358
aF6.8065336636652525
aF6.80601091485204
aF6.805639663258928
aF6.805192374524383
aF6.80514843359909
aF6.804590827839096
aF6.804498277362585
aF6.804266827893972
aF6.8045102386681116
aF6.804202465041872
aF6.804168969735555
aF6.804171813160622
aF6.8040731708677225
aF6.803914065027644
aF6.803798493701702
aF6.803526476169855
aF6.803212328774306
aF6.8026871026216185
aF6.802073884997023
aF6.801563126171077
aF6.801364047456822
aF6.800831895951777
aF6.800657216305911
aF6.800657216305911
aF8.450186364824994
aF6.800481196420405
aF6.800460162583828
aF6.800383958493899
aF6.80005658995724
aF6.800062172953968
aF6.800046943936147
aF6.80007889965675
aF6.800045059814744
aF6.800079230900526
aF6.800046116351442
aF6.80004512699432
aF6.8000450678740485
aF6.800045061238116
aF6.800045060099032
aF6.800045059873209
aF6.800045059826688
aF6.800045059817249
aF6.8000450598153
aF6.80004505981494
aF6.800045059814778
aF6.800045059814602
aF6.800045059814746
aF6.800045059814893
aF6.800045059814602
aF6.800045059814602
aF229.58814458202383
aF6.799835700320353
aF6.799756195622193
aF6.799516202572651
aF6.799098316791669
aF6.798637384966204
aF6.798001633288198
aF6.7973646608026
aF6.796784628750602
aF6.796467795329459
aF6.79595059327213
aF6.795921552047927
aF6.795881091537552
aF6.795789805354945
aF6.79582430701814
aF6.795703196625617
aF6.795552177390352
aF6.795410580367186
aF6.795170636581933
aF6.794832697291721
aF6.794737072372682
aF6.79450348395425
aF6.79400993044935
aF6.793564581385294
aF6.793025633509863
aF6.793025633509863
aF9.651831920892342
aF6.7927818745475985
aF6.792761988487756
aF6.792695494763008
aF6.792506996201558
aF6.792412816469593
aF6.792434757675107
aF6.792411633609385
aF6.792441134680731
aF6.792412309988819
aF6.792411627486215
aF6.7924119523191315
aF6.792411653761663
aF6.792411631272628
aF6.792411627486215
aF6.792440895949618
aF6.792412488798428
aF6.792411673734135
aF6.7924116319039705
aF6.792411628185286
aF6.792411627622691
aF6.792411627514317
aF6.792411627492148
aF6.792411627487377
aF6.792411627486448
aF6.792411627486215
aF287.7725418304986
aF6.792014129426118
aF6.791818960155263
aF6.791038685089704
aF6.791119982041552
aF6.790811777334815
aF6.79068064944004
aF6.790492528730013
aF6.790332014295219
aF6.790177073490243
aF6.789897089916623
aF6.789760075772584
aF6.789564899330253
aF6.789353685558979
aF6.789151780408211
aF6.789019815094605
aF6.788830404908284
aF6.788621096372461
aF6.78822484768699
aF6.788124504403447
aF6.787339238769025
aF6.787171046498532
aF6.786845547128886
aF6.786132583269358
aF6.785438403610279
aF6.785438403610279
aF8.473963669801403
aF6.78527457026259
aF6.7852641195130765
aF6.785227803308095
aF6.785115082417777
aF6.785100447720497
aF6.785123872012585
aF6.785101963420782
aF6.7851006368693145
aF6.785100474326136
aF6.785100451530992
aF6.785100448267869
aF6.785100447799154
aF6.785100447731752
aF6.785100447722062
aF6.78510044772074
aF6.785100447720735
aF6.785100447720444
aF6.785100447720671
aF6.785100447720444
aF6.785574619864358
aF6.7851057958115195
aF6.785100854547453
aF6.785100506421767
aF6.785100457809417
aF6.785100447720444
aF238.93930751810586
aF6.784845180538607
aF6.784683021396601
aF6.784387498180388
aF6.784290722689347
aF6.784111271130708
aF6.7839233577227755
aF6.783768895484403
aF6.783415694146308
aF6.782873332729526
aF6.782349433356751
aF6.782090749827004
aF6.781940371494036
aF6.781740192373132
aF6.7813583660228876
aF6.781007512276892
aF6.780746521318042
aF6.780658165618329
aF6.780571370046378
aF6.78042970019694
aF6.780237463977214
aF6.779972353904261
aF6.779469849789914
aF6.778774635298127
aF6.777780301431413
aF6.777780301431413
aF7.720734354827627
aF6.77766906670074
aF6.777661771111902
aF6.777635009563216
aF6.777532382555684
aF6.777555058576064
aF6.77753367544288
aF6.777532551150822
aF6.7775324102573435
aF6.77753238732172
aF6.777532383382422
aF6.777532382698997
aF6.77753238258034
aF6.777532382559652
aF6.777532382556126
aF6.777532382555549
aF6.77753238255573
aF6.777532382555529
aF6.7775323825555365
aF6.777532382555529
aF6.7775550585799635
aF6.777533675443019
aF6.77753255115085
aF6.777532410257823
aF6.7775323873219175
aF6.777532382555529
aF197.07107296161877
aF6.777065023788413
aF6.776594549064313
aF6.775251160735522
aF6.775108171446842
aF6.774706227734756
aF6.774457554714326
aF6.7741251200953965
aF6.773848953117845
aF6.773801192231234
aF6.773398506957456
aF6.773360444311111
aF6.773325258564025
aF6.773332505302326
aF6.773288484804134
aF6.773283493671064
aF6.773283127149057
aF6.773205029096191
aF6.772966363569514
aF6.772805638448061
aF6.772452923190656
aF6.772220170475627
aF6.771815204917456
aF6.771577316935158
aF6.771414188140115
aF6.771414188140115
aF7.169391681244138
aF6.77134250046625
aF6.771334119757032
aF6.77130265512986
aF6.771209677018957
aF6.771197218772375
aF6.771198519063873
aF6.771197223205103
aF6.771197218787524
aF6.771197218772199
aF6.771197218772423
aF6.771197218772194
aF6.771197218772194
aF6.771197218772135
aF6.7711972187723415
aF6.771197218772135
aF6.7712034073946
aF6.771197239068959
aF6.771197218844186
aF6.771197218772661
aF6.771197218772281
aF6.771197218772135
aF6.771197218772135
aF6.771197218772196
aF6.771197218772135
aF6.771197218772135
aF206.99200664404432
aF6.771098867761827
aF6.771028428676175
aF6.770843810930451
aF6.770670600219779
aF6.770499066806384
aF6.770334643383128
aF6.769937045873471
aF6.769706816862842
aF6.769477157826058
aF6.769107569737644
aF6.768883207794845
aF6.768428525373654
aF6.7680191922572135
aF6.767905618895776
aF6.767680955249407
aF6.767673945959457
aF6.767428211770879
aF6.7672713665764626
aF6.767123463363111
aF6.766879530701839
aF6.766784386280795
aF6.766136269414023
aF6.765505676448626
aF6.7645892800955405
aF6.7645892800955405
aF8.203838820717818
aF6.764446003754449
aF6.764439309044198
aF6.764416242653134
aF6.764357045339452
aF6.764351142472332
aF6.764373059466456
aF6.7643525885570455
aF6.764351313593114
aF6.764351164678743
aF6.764351145390416
aF6.764351142856556
aF6.7643511425230045
aF6.764351142479175
aF6.7643511424730836
aF6.764351142472412
aF6.764351142472435
aF6.764351142472373
aF6.764351142472671
aF6.764351142472332
aF6.764351142472332
aF6.764351142472671
aF6.764351142472332
aF6.764351142472332
aF6.764351142472332
aF6.764351142472332
aF315.9045026038964
aF6.763838725373063
aF6.763600663652506
aF6.76304885208258
aF6.762685993402336
aF6.762422190703045
aF6.761989712881077
aF6.761788160666985
aF6.761537626070194
aF6.761187571970337
aF6.76112953490272
aF6.761046994581257
aF6.76111368573242
aF6.760983615021553
aF6.7608923423857465
aF6.760851857077315
aF6.7606080958064485
aF6.760405105146846
aF6.7602155470256005
aF6.760010515093553
aF6.759853581897477
aF6.7595946700872105
aF6.759403017221132
aF6.759284706956361
aF6.75889118844135
aF6.75889118844135
aF6.96715857237343
aF6.758842991019026
aF6.758838446998986
aF6.758821575945566
aF6.758774942397144
aF6.758775472582149
aF6.758759979151707
aF6.758775710957492
aF6.758758117115043
aF6.75877579170788
aF6.758758469763039
aF6.758758098188958
aF6.75875826495788
aF6.758758107522272
aF6.758758099084126
aF6.758758098188958
aF6.758775813818362
aF6.7587586083344195
aF6.758758122920213
aF6.758758100122407
aF6.758758098454358
aF6.758758098238342
aF6.758758098199159
aF6.758758098191112
aF6.7587580981895385
aF6.758758098188958
aF200.78831174091104
aF6.758661649424594
aF6.758601059456224
aF6.758525291074246
aF6.75842571411529
aF6.758266300594077
aF6.758110358897241
aF6.757821727041392
aF6.757654432697132
aF6.757382355593107
aF6.757044197035658
aF6.756767973282146
aF6.756471286486178
aF6.756308586696745
aF6.755996080495313
aF6.75573694093954
aF6.755518299062466
aF6.755414396870327
aF6.7553059237023
aF6.755181772282295
aF6.754871836640039
aF6.754507570157664
aF6.754009255158648
aF6.7533950170083425
aF6.752440378656097
aF6.752440378656097
aF7.431548445791989
aF6.752345092175535
aF6.752335519782779
aF6.752299688056979
aF6.752155686511458
aF6.7521721233324605
aF6.752156470629426
aF6.752155736296707
aF6.752155689734064
aF6.752155686720277
aF6.752155686524951
aF6.752155686512317
aF6.752155686511381
aF6.752155686511443
aF6.752155686511296
aF6.752155686511296
aF6.75215568651136
aF6.752155686511296
aF6.752166879138519
aF6.752156180573069
aF6.752155731466711
aF6.752155690954423
aF6.752155686954486
aF6.752155686555826
aF6.752155686515913
aF6.752155686511296
aF175.49671424506477
aF6.7515161329163345
aF6.750896141940883
aF6.749970200337707
aF6.749705981677851
aF6.749451622100629
aF6.749077449836825
aF6.748868351519718
aF6.74857305366181
aF6.748586315571295
aF6.748437076616662
aF6.7483407144444705
aF6.748280778746803
aF6.748290914030116
aF6.74825520393356
aF6.748205036943405
aF6.7482365467034064
aF6.748172208034127
aF6.748118314229352
aF6.748037137409007
aF6.7478600042578964
aF6.747655758469172
aF6.747317911387064
aF6.7471149585484635
aF6.7470234469273755
aF6.7470234469273755
aF7.247479518762244
aF6.7469511233591835
aF6.746947329436626
aF6.746933115187229
aF6.746895456337906
aF6.746904644410714
aF6.746895717165845
aF6.746895464832987
aF6.746895456615796
aF6.746895456347184
aF6.746895456338475
aF6.746895456338194
aF6.746895456337906
aF6.746895456337906
aF6.746895456337906
aF6.746895456338079
aF6.746895456337906
aF6.746895456337906
aF6.7468954563381445
aF6.746895456337906
aF6.746895456337906
aF6.746895456337953
aF6.746895456337906
aF6.746895456337906
aF6.746895456338137
aF6.746895456337906
aF208.63911399657638
aF6.7467995900687825
aF6.746757734102369
aF6.746595323138653
aF6.746415389615368
aF6.746267605709956
aF6.74608550844227
aF6.7458595401773565
aF6.745554880081581
aF6.745224827910487
aF6.745080693870351
aF6.744910439540735
aF6.744724125438113
aF6.744353800333281
aF6.744065234300292
aF6.74391560483026
aF6.743762230604178
aF6.743620557885492
aF6.743467384939175
aF6.743244462262334
aF6.743039565140396
aF6.742707363153185
aF6.742286066094856
aF6.74158805092436
aF6.738900693992342
aF6.738900693992342
aF11.585050952200746
aF6.7385491841185825
aF6.738525218464472
aF6.7383288642891355
aF6.738185790496223
aF6.738120313894674
aF6.738138839522595
aF6.738120882087019
aF6.738120342657233
aF6.738120316312504
aF6.738120314245753
aF6.738120313961348
aF6.738120313908189
aF6.738120313897355
aF6.738120313895312
aF6.7381203138946955
aF6.7381203138947825
aF6.738120313894358
aF6.738120313894607
aF6.73812031389444
aF6.738120313894669
aF6.738120313894358
aF6.73842470789854
aF6.738126091554365
aF6.738120868516928
aF6.738120313894358
aF274.14700096544726
aF6.736913068824027
aF6.736263575492611
aF6.735447208676796
aF6.7351914519394835
aF6.734945359098392
aF6.734660288862155
aF6.73450495477071
aF6.734304702669428
aF6.7341929572947485
aF6.734148701366864
aF6.734099994659372
aF6.734037260443346
aF6.733978012596497
aF6.733849871997132
aF6.733710468488724
aF6.733490590010581
aF6.733309019426162
aF6.733065454245846
aF6.732908640038568
aF6.732766972796584
aF6.732610881801616
aF6.73246777110489
aF6.732369573360007
aF6.732302944907708
aF6.732302944907708
aF6.938386801636069
aF6.73225685356436
aF6.732253034152091
aF6.732238823957067
aF6.732199040434615
aF6.732199466599075
aF6.7321851770253875
aF6.732199670747763
aF6.732183453059426
aF6.732199742766342
aF6.732183776341969
aF6.732183435115122
aF6.7321835879041885
aF6.732183443506017
aF6.7321834358942
aF6.732183435115122
aF6.7321997624261645
aF6.732183903984227
aF6.732183457561696
aF6.732183436818975
aF6.732183435342925
aF6.732183435157099
aF6.732183435123359
aF6.732183435116728
aF6.73218343511482
aF6.73218343511482
aF240.7351260472351
aF6.732107368353805
aF6.73207537249578
aF6.732006103639854
aF6.731900485831245
aF6.7317633717956635
aF6.731570811361738
aF6.7313847382817595
aF6.731262700397886
aF6.731051720135092
aF6.73091218149567
aF6.730756626953568
aF6.730551150295101
aF6.730392872878003
aF6.730173150160745
aF6.729965728298108
aF6.729804697281228
aF6.729652811300962
aF6.729435491303322
aF6.729211048725498
aF6.728996217640152
aF6.728728039657232
aF6.728317142887969
aF6.727805238402862
aF6.725964119671101
aF6.725964119671101
aF6.901414234688579
aF6.7259097211896
aF6.725898805642341
aF6.725858431703488
aF6.725730875747995
aF6.725731853970025
aF6.725730880075224
aF6.725730875767557
aF6.725730875747994
aF6.725730875748377
aF6.725730875748136
aF6.725730875747994
aF6.725730875747994
aF209.8646699949606
aF6.725136233052954
aF6.724826313314207
aF6.724580656281564
aF6.724454466390673
aF6.724309062118209
aF6.724067343568459
aF6.724003409033022
aF6.7239077291533675
aF6.723792231743049
aF6.723799797719909
aF6.723739343828573
aF6.723664262139483
aF6.723585997964223
aF6.723837335765458
aF6.7235659298356545
aF6.7235150096376834
aF6.723431946456998
aF6.7233187148527005
aF6.723195263966526
aF6.723034309786099
aF6.7228752249273285
aF6.722707688203343
aF6.722565800269251
aF6.722428271411879
aF6.722428271411879
aF7.185372217476658
aF6.722363762322352
aF6.722362376363183
aF6.722357230772792
aF6.722354341482628
aF6.722365758784534
aF6.72235477155029
aF6.722354360830451
aF6.722354342360198
aF6.722354341522388
aF6.722354341484607
aF6.722354341482925
aF6.722354341482623
aF6.722354341482582
aF6.722354341482612
aF6.72235434148266
aF6.722354341482582
aF6.722354341482582
aF6.722354341482658
aF6.722354341482665
aF6.722354341482582
aF6.722354235594825
aF6.722354250063395
aF6.7223542363633
aF6.722354235636946
aF6.722354235594825
aF278.5410508167032
aF6.722279961742263
aF6.722231708643163
aF6.722012924557015
aF6.721906823934459
aF6.721799723892472
aF6.721653887090476
aF6.721547681664875
aF6.721363140454319
aF6.7213747686606435
aF6.721249152694492
aF6.721113187181912
aF6.720969805993844
aF6.720773383557184
aF6.720528519808397
aF6.720298584351534
aF6.720104750316693
aF6.719985379561217
aF6.719871440385235
aF6.719747907458975
aF6.719602109374192
aF6.71940626067315
aF6.719126388015116
aF6.718795675994993
aF6.718507088037029
aF6.718507088037029
aF7.542392865752568
aF6.718409783830568
aF6.718405588318401
aF6.718390302332377
aF6.718337537260798
aF6.718353661391358
aF6.718338332692284
aF6.718337632252881
aF6.7183375534384915
aF6.718337540272854
aF6.718337537832113
aF6.718337537369328
aF6.718337537281698
aF6.718337537264885
aF6.718337537261569
aF6.718337537261023
aF6.718337537260943
aF6.718337537260901
aF6.71833753726095
aF6.718337537260798
aF6.7183375372609255
aF6.718337537260798
aF6.718337537260798
aF6.7183375372609255
aF6.718337537260798
aF6.718337537260798
aF174.15603043745995
aF6.718183088221828
aF6.718067067983231
aF6.717807015862125
aF6.717616832441102
aF6.71745492677425
aF6.717313595380457
aF6.717214007955917
aF6.7171380236463385
aF6.71709019257934
aF6.717041109392909
aF6.717000924319562
aF6.716937965172518
aF6.7168803106336
aF6.716788714124391
aF6.7166617930158505
aF6.716581797620066
aF6.7164940446073
aF6.716377234803247
aF6.71630804897111
aF6.716222203250949
aF6.716113120041571
aF6.716030947173339
aF6.715630700459805
aF6.714950509078273
aF6.714950509078273
aF6.773899871830084
aF6.714923854516872
aF6.714921536861784
aF6.714913592396744
aF6.714901296206724
aF6.714899586192859
aF6.714899518001088
aF6.714899518001088
aF336.1868931264946
aF6.7145693738030054
aF6.714437061767173
aF6.7142820295175305
aF6.714221452850836
aF6.714159076832546
aF6.71404662098996
aF6.714015045491209
aF6.7139812725917185
aF6.713962971815816
aF6.71386973934745
aF6.713800001086788
aF6.7135399642583415
aF6.713576251642307
aF6.713461355092321
aF6.71336640522583
aF6.713127688784942
aF6.713003650582682
aF6.712780071660472
aF6.712391702108148
aF6.712166754544091
aF6.7118649120026515
aF6.711708763398827
aF6.711574354165487
aF6.711456269295111
aF6.711456269295111
aF7.416300793799287
aF6.711364571869311
aF6.71135819964541
aF6.711334462463393
aF6.711237085275492
aF6.711256633934692
aF6.7112383256709425
aF6.7112372128782205
aF6.711237099209869
aF6.711237086807321
aF6.71123708544391
aF6.711237085294327
aF6.711237085277574
aF6.711237085275927
aF6.711237085275888
aF6.711237085275753
aF6.711237085275492
aF6.711237085275492
aF6.711237085275492
aF6.711237085275808
aF6.711237085275492
aF6.711237085275492
aF6.711237085275716
aF6.711237085275492
aF6.711237085275492
aF6.711237085275492
aF217.30444889346631
aF6.71108359811371
aF6.711004205477909
aF6.710814589532861
aF6.710611142842955
aF6.710389077606635
aF6.710097671492676
aF6.70989393082813
aF6.709745980600017
aF6.709705417946633
aF6.709660136975904
aF6.70966589131986
aF6.709622162423841
aF6.709589475518015
aF6.709549272805315
aF6.7094446650418895
aF6.709359304148077
aF6.709307654834577
aF6.70920192462996
aF6.709079586234926
aF6.709129041521175
aF6.709021428374566
aF6.708949664113694
aF6.708878466090166
aF6.708718838406016
aF6.708718838406016
aF6.951002983354899
aF6.708676118356408
aF6.708675532235915
aF6.708673404294091
aF6.708668355218718
aF6.708683186561721
aF6.708667944722757
aF6.708683234743791
aF6.7086685399662525
aF6.708668004974845
aF6.708667954543893
aF6.708667946569312
aF6.708667945081178
aF6.708667944792857
aF6.708667944736511
aF6.70866794472545
aF6.708667944723246
aF6.708667944723061
aF6.708667944722929
aF6.708667944722974
aF6.708667944722794
aF6.708667944722757
aF6.708667944722919
aF6.708667944722757
aF6.708667944722757
aF6.708667944722757
aF311.0499335007368
aF6.708587138663292
aF6.708536336710255
aF6.708272147303671
aF6.70826763303995
aF6.708175751918008
aF6.708131467332178
aF6.7080909293149915
aF6.707986442618015
aF6.707876563681317
aF6.7077037863040765
aF6.707572681045654
aF6.707385231933822
aF6.707184428812038
aF6.706958287676658
aF6.706698816213443
aF6.706519830043833
aF6.706244180657597
aF6.706057735860082
aF6.705873182279838
aF6.705840573036907
aF6.705757858883192
aF6.7056212716502905
aF6.7053177235396095
aF6.704020171804018
aF6.704020171804018
aF7.362025687904554
aF6.703922858160761
aF6.703909993733204
aF6.703861675243099
aF6.703645651870479
aF6.70365961881058
aF6.703646305523852
aF6.703645692276833
aF6.703645654414119
aF6.70364565203079
aF6.703645651880796
aF6.70364565187155
aF6.703645651870705
aF6.703645651870605
aF6.703645651870479
aF6.703645651870479
aF6.703645651870465
aF6.703645651870465
aF6.703645651870465
aF6.703645651870577
aF6.703645651870465
aF6.703645651870465
aF6.7036456518705005
aF6.703645651870465
aF6.703645651870465
aF6.703645651870465
aF199.84002691660257
aF6.703198330988448
aF6.702847638798611
aF6.702407669678806
aF6.7023520429940255
aF6.702249543622138
aF6.702103690283536
aF6.702024410025793
aF6.701898465888901
aF6.702022715761181
aF6.701848961571747
aF6.701822072647241
aF6.70182093836582
aF6.701834479843161
aF6.7018133281051
aF6.7018711712325825
aF6.701787415694719
aF6.701893692629547
aF6.701744506435805
aF6.701803327847577
aF6.70170755758291
aF6.701860248504552
aF6.701671457528374
aF6.701687553581152
aF6.701629227435188
aF6.701629227435188
aF7.0166410785463285
aF6.701579958610864
aF6.7015794867593
aF6.701577751384876
aF6.701573241600967
aF6.701589938788466
aF6.701573973607143
aF6.701573325260188
aF6.701573255580856
aF6.701573244170612
aF6.701573242082649
aF6.701573241691781
aF6.701573241617883
aF6.701573241604457
aF6.7015732416016345
aF6.701573241601167
aF6.701573241601064
aF6.701573241600862
aF6.701573241601082
aF6.701573241600862
aF6.7016001215149466
aF6.701574619859461
aF6.701573360997546
aF6.701573252507753
aF6.7015732426024925
aF6.701573241600862
aF202.33493063498835
aF6.701507120408424
aF6.701450314741921
aF6.701222710845007
aF6.701113355648719
aF6.701097684227847
aF6.701045093644739
aF6.700954313430806
aF6.7008369272414505
aF6.700681181686138
aF6.700511068507225
aF6.70046054186821
aF6.700368345173308
aF6.700190125659262
aF6.700023812199014
aF6.699465180582804
aF6.6990790558746625
aF6.698447503260592
aF6.6973155555556705
aF6.695533356028392
aF6.694201246765752
aF6.693522254775717
aF6.693020437349972
aF6.69266413540935
aF6.691791128753003
aF6.691791128753003
aF31.087410842439912
aF6.69063299965061
aF6.690604527199701
aF6.690513147059768
aF6.6900593361506555
aF6.689756174201907
aF6.689658742563218
aF6.689646119430693
aF6.6896442831343546
aF6.689644178286489
aF6.689644178286489
aF307.39364523952173
aF6.689195755154753
aF6.689027969785281
aF6.6887241397755535
aF6.688449497336618
aF6.68819926968512
aF6.687880932851256
aF6.687559679305581
aF6.687314225543567
aF6.687876885448674
aF6.687221377248145
aF6.687114516943218
aF6.687020649683808
aF6.687139813003439
aF6.686980994836919
aF6.686961487758991
aF6.687078995223354
aF6.68695276538082
aF6.686936784752676
aF6.686969776902833
aF6.686921303997732
aF6.686975542927371
aF6.686906965686214
aF6.6869075586619005
aF6.686890291063614
aF6.686890291063614
aF6.9858246867738725
aF6.686834929474994
aF6.6868300266062874
aF6.686811541305637
aF6.686755597294503
aF6.686746732691551
aF6.686747201448769
aF6.6867467335873485
aF6.686746732693095
aF6.6867467326912955
aF6.686746732691244
aF6.6867467326923045
aF6.6867467326915
aF6.686746732691244
aF6.686746732691244
aF6.686746732691594
aF6.686746732691244
aF6.68674715789448
aF6.686746733192985
aF6.68674673269234
aF6.68674673269188
aF6.686746732691244
aF6.686746732691244
aF6.686746732691404
aF6.686746732691244
aF6.686746732691244
aF245.42506826006954
aF6.686689733678826
aF6.686675695389889
aF6.686624741959683
aF6.686508348174774
aF6.686409925792011
aF6.6864243446681115
aF6.686317528336556
aF6.686243568187658
aF6.68616536417688
aF6.686051788139295
aF6.685940995415812
aF6.685794998716883
aF6.68573430843295
aF6.6856501964847475
aF6.685585754595195
aF6.685490294713688
aF6.685468343817105
aF6.685168225862018
aF6.68491962278633
aF6.684610446454368
aF6.683984158683838
aF6.683351876893742
aF6.682209138188917
aF6.680897584602576
aF6.680897584602576
aF6.771052287124393
aF6.680897010508682
aF6.680835156672774
aF6.680629542862182
aF6.68026001046583
aF6.6802594471835075
aF6.68025933905111
aF6.68025933905111
aF247.00453481421064
aF6.679808835933201
aF6.679468707735257
aF6.678426598129819
aF6.678458535611325
aF6.678211050467819
aF6.678058137826559
aF6.677699474881479
aF6.677551546076474
aF6.677459340319558
aF6.677117435693324
aF6.677033496344837
aF6.676881154590056
aF6.67706174836618
aF6.676807747881906
aF6.676738962839973
aF6.6766877366205275
aF6.676618962062214
aF6.676555700751649
aF6.676431198541607
aF6.676375776546871
aF6.676322681486251
aF6.676214664305499
aF6.67614765474756
aF6.675969293234573
aF6.675969293234573
aF6.97908060297496
aF6.6759226942272605
aF6.675922603707798
aF6.6759222604066295
aF6.675923699695639
aF6.675922360077568
aF6.675922269833896
aF6.675922261327509
aF6.6759222604969235
aF6.675922260415399
aF6.675922260407345
aF6.67592226040675
aF6.675922260406505
aF6.6759222604064785
aF6.675922260406537
aF6.67592226040645
aF6.675922260406647
aF6.675922260406612
aF6.67592226040645
aF6.675988802485362
aF6.675923487643647
aF6.675922331474531
aF6.6759222648618515
aF6.675922260687253
aF6.675922260423979
aF6.67592226040645
aF214.43748187267192
aF6.675878772400752
aF6.67584204502497
aF6.675763966107855
aF6.675731034609775
aF6.675709940674475
aF6.67567650810631
aF6.6756192223871675
aF6.675548973494177
aF6.6754320155212845
aF6.675297690155945
aF6.675219459277075
aF6.675147075808013
aF6.67509051351111
aF6.675019370221419
aF6.674965663400913
aF6.674929969900994
aF6.674869041680367
aF6.674739316295003
aF6.674580721813726
aF6.674437766716242
aF6.674199403703804
aF6.673920195569545
aF6.673508947784084
aF6.672937534199265
aF6.672937534199265
aF9.485883011675895
aF6.6727026175083015
aF6.672689022304223
aF6.672571158513703
aF6.672494296463816
aF6.672471105274926
aF6.67248643351347
aF6.672472068956315
aF6.67247122955448
aF6.672471123889265
aF6.672471108132525
aF6.672471105715273
aF6.672471105342723
aF6.672471105285279
aF6.672471105276546
aF6.672471105274804
aF6.672471105276193
aF6.672471105275154
aF6.67247110527512
aF6.672471105274804
aF6.672497517563098
aF6.672472596286964
aF6.672471264959398
aF6.672471123975592
aF6.672471107489072
aF6.672471105274804
aF245.2160071587639
aF6.672277024427787
aF6.67218579259535
aF6.672028326534303
aF6.671889350663019
aF6.671774812587412
aF6.671678421967979
aF6.671593898012706
aF6.671545350429586
aF6.671523066729112
aF6.671473417759303
aF6.671461844999083
aF6.671385648851533
aF6.671310984377033
aF6.671252632825842
aF6.671176488598604
aF6.671393788410667
aF6.67114839732961
aF6.671116632183315
aF6.671061290995759
aF6.6710013162475175
aF6.670933173477996
aF6.670878065556604
aF6.670772179228823
aF6.67067421856102
aF6.67067421856102
aF6.6909614594650755
aF6.670681445470246
aF6.6706746158245895
aF6.670674247848169
aF6.670674220771177
aF6.670674218728433
aF6.67067421857417
aF6.6706742185618495
aF6.670674218561375
aF6.670674218561459
aF6.67067421856102
aF6.67067421856102
aF6.670674218561379
aF6.67067421856102
aF6.67067421856102
aF6.670674218560903
aF6.670674218560903
aF6.670674218560903
aF6.670674218561038
aF6.670674218560903
aF6.670674218560903
aF309.2730895092488
aF6.670669340119721
aF6.670662826003056
aF6.670663988280825
aF6.670633023120841
aF6.670665712152587
aF6.670622844370012
aF6.670625051910687
aF6.670618335710586
aF6.670627273118667
aF6.670606997791602
aF6.670610278928143
aF6.670600096380749
aF6.6705779224289365
aF6.670596234594866
aF6.67056162876594
aF6.6705123019728525
aF6.670378006199252
aF6.670386925893245
aF6.670329741832969
aF6.670246553370426
aF6.670143793247163
aF6.670101181902714
aF6.670072315983534
aF6.670047911844858
aF6.670047911844858
aF6.6838349021566525
aF6.670031153155506
aF6.670030083609005
aF6.670027819143314
aF6.670031014316921
aF6.670021280388585
aF6.670029412894937
aF6.670018064131378
aF6.6700281928385845
aF6.670017573512732
aF6.670028587735819
aF6.670017985772327
aF6.670017613016466
aF6.670017579828931
aF6.6700175747043176
aF6.670017573746325
aF6.6700175735586775
aF6.670017573521605
aF6.670017573514523
aF6.670017573512901
aF6.670017573512624
aF6.67001757351289
aF6.670017573512705
aF6.670017573512654
aF6.670017573512624
aF6.670017573512624
aF159.63795522168462
aF6.669990092380649
aF6.669971612454031
aF6.669909216142315
aF6.669829412598611
aF6.6697226200973745
aF6.669637203826502
aF6.669564294550131
aF6.669560985156938
aF6.669555520921959
aF6.669536833467086
aF6.669523576389182
aF6.669471793462044
aF6.669425505809652
aF6.669405599851688
aF6.66939774271817
aF6.669403871385331
aF6.669392729926084
aF6.669405007592468
aF6.6693831442171945
aF6.669370344146731
aF6.669413541669805
aF6.669361087101873
aF6.669307301915339
aF6.669182740588846
aF6.669182740588846
aF6.716452161912962
aF6.669162379931988
aF6.669161558390924
aF6.6691589910836715
aF6.669158765090579
aF6.669156700896199
aF6.6691560923408595
aF6.6691560592252195
aF6.6691560592252195
aF296.43100663238306
aF6.669044911432833
aF6.668995732181356
aF6.6685788843062035
aF6.668415815240129
aF6.668420171953905
aF6.668334723595535
aF6.668238485433317
aF6.668215132648044
aF6.668211756835296
aF6.66823525145389
aF6.668211994186015
aF6.668211647004522
aF6.668211746028048
aF6.668242253652592
aF6.668210006608646
aF6.6682796909690385
aF6.668209953285761
aF6.668284301320128
aF6.668209277609138
aF6.668277456385505
aF6.668210051642566
aF6.668209031832566
aF6.668209371311125
aF6.668208995621164
asS'current_iter'
p3
I92
sS'total_evals'
p4
cnumpy.core.multiarray
scalar
p5
(cnumpy
dtype
p6
(S'i8'
p7
I0
I1
tp8
Rp9
(I3
S'<'
p10
NNNI-1
I-1
I0
tp11
bS'^\x10\x00\x00\x00\x00\x00\x00'
p12
tp13
Rp14
sS'delta_s'
p15
g5
(g6
(S'f8'
p16
I0
I1
tp17
Rp18
(I3
S'<'
p19
NNNI-1
I-1
I0
tp20
bS'\xac\xe1@Q8?A?'
p21
tp22
Rp23
sS'delta_m'
p24
g5
(g18
S'"\xb6QV\xb1yy?'
p25
tp26
Rp27
sS'obj_fun'
p28
F6.668208995621164
s.