(dp0
S'Z'
p1
cnumpy.core.multiarray
_reconstruct
p2
(cnumpy
ndarray
p3
(I0
tp4
S'b'
p5
tp6
Rp7
(I1
(I1
I30
I9
tp8
cnumpy
dtype
p9
(S'f8'
p10
I0
I1
tp11
Rp12
(I3
S'<'
p13
NNNI-1
I-1
I0
tp14
bI00
S'_\x98L\x15\x8cJ\xc6?)a\xa6\xed_Y\xe6\xbf\xcaO\xaa}:\x1e\xe7\xbf\xab[=\'\xbdo\xe4\xbf3\xa7\xcbbb\xf3\xb9\xbf\xca\x1a\xf5\x10\x8d\xee\xda\xbf/\xa8o\x99\xd3e\xe3\xbfU\xbc\x91y\xe4\x0f\xd0\xbfUj\xf6@+0\xd6\xbf\xd8\x81sF\x94\xf6\xf3?\x901w-!\x9f\x01@]\xdcF\x03x\x0b\x02@\xb0\x03\xe7\x8c(\xed\x03@\x7f\xfb:p\xce\x88\xf3?\x1a\xc0[ A\xf1\xfb?b\xa1\xd64\xef\xb8\x05@\x9c\xc4 \xb0rh\x03@\xc4\xb1.n\xa3A\x14@\x14:\xaf\xb1KT\xe1\xbf)a\xa6\xed_Y\xe6\xbf\xcaO\xaa}:\x1e\xe7\xbf\x02&p\xebn\x9e\xd2\xbf3\xa7\xcbbb\xf3\xb9\xbf`\xe5\xd0"\xdb\xf9\xbe?\x81&\xc2\x86\xa7W\xf0\xbf\x054\x116<\xbd\xe2\xbfUj\xf6@+0\xd6\xbf4\x16Mg\'\x83\xc7\xbf)a\xa6\xed_Y\xe6\xbf\xcaO\xaa}:\x1e\xe7\xbf\xab[=\'\xbdo\xe4\xbf~\xc6\x85\x03!Y\xe1\xbf\xfc\x1d\x8a\x02}"\xe6\xbf\x19x\xee=\\r\xc8\xbf\x054\x116<\xbd\xe2\xbfUj\xf6@+0\xd6\xbf\x14:\xaf\xb1KT\xe1\xbf)a\xa6\xed_Y\xe6\xbf\xcaO\xaa}:\x1e\xe7\xbf\xab[=\'\xbdo\xe4\xbf~\xc6\x85\x03!Y\xe1\xbf\xfc\x1d\x8a\x02}"\xe6\xbf\x81&\xc2\x86\xa7W\xf0\xbf\x054\x116<\xbd\xe2\xbfUj\xf6@+0\xd6\xbf_\x98L\x15\x8cJ\xc6?)a\xa6\xed_Y\xe6\xbf\xcaO\xaa}:\x1e\xe7\xbf\xab[=\'\xbdo\xe4\xbf~\xc6\x85\x03!Y\xe1\xbf\xfc\x1d\x8a\x02}"\xe6\xbf\x19x\xee=\\r\xc8\xbf\x054\x116<\xbd\xe2\xbfUj\xf6@+0\xd6\xbf\xe3\xa5\x9b\xc4 \xb0\xf9?\x1aL\xc3\xf0\x111\xd1?\xce\x8d\xe9\tK<\xe3?\xb0\x03\xe7\x8c(\xed\x03@\x7f\xfb:p\xce\x88\xf3?\x1a\xc0[ A\xf1\xfb?\x8a\xb0\xe1\xe9\x95\xb2\xcc?\x07\xce\x19Q\xda\x1b\xfc?Uj\xf6@+0\xd6\xbf\xcc\x7fH\xbf}\x1d\xf4\xbf%\x05\x16\xc0\x94\x81\xab\xbf\xcaO\xaa}:\x1e\xe7\xbf\x02&p\xebn\x9e\xd2\xbf~\xc6\x85\x03!Y\xe1\xbf\xca\x1a\xf5\x10\x8d\xee\xda\xbfKvl\x04\xe2u\xe4?\xa3:\x1d\xc8zj\xb5?DQ\xa0O\xe4I\xd0?\xcc\x7fH\xbf}\x1d\xf4\xbf)a\xa6\xed_Y\xe6\xbf\xcaO\xaa}:\x1e\xe7\xbf\xab[=\'\xbdo\xe4\xbf~\xc6\x85\x03!Y\xe1\xbf\xfc\x1d\x8a\x02}"\xe6\xbf/\xa8o\x99\xd3e\xe3\xbf\x054\x116<\xbd\xe2\xbfUj\xf6@+0\xd6\xbf\xd8\x81sF\x94\xf6\xf3?!\xb0rh\x91\xed\xf8?\xf7\xe4a\xa1\xd64\xf4?\xdd\xea9\xe9}\xe3\xd9?tF\x94\xf6\x06\xdf\x07@\x1a\xc0[ A\xf1\xfb?\xa3\x92:\x01M\x84\xf7?\x07\xce\x19Q\xda\x1b\xfc?/\xdd$\x06\x81\x15\n@\xcc\x7fH\xbf}\x1d\xf4\xbf)a\xa6\xed_Y\xe6\xbf\xcaO\xaa}:\x1e\xe7\xbf\xab[=\'\xbdo\xe4\xbf~\xc6\x85\x03!Y\xe1\xbf\xfc\x1d\x8a\x02}"\xe6\xbf\x19x\xee=\\r\xc8\xbf\x054\x116<\xbd\xe2\xbfUj\xf6@+0\xd6\xbf\x9c.\x8b\x89\xcd\xc7\xec\xbf)a\xa6\xed_Y\xe6\xbf\xcaO\xaa}:\x1e\xe7\xbf\xab[=\'\xbdo\xe4\xbf~\xc6\x85\x03!Y\xe1\xbf\xfc\x1d\x8a\x02}"\xe6\xbf\x81&\xc2\x86\xa7W\xf0\xbf\x054\x116<\xbd\xe2\xbfUj\xf6@+0\xd6\xbf_\x98L\x15\x8cJ\xc6?)a\xa6\xed_Y\xe6\xbfW\xec/\xbb\'\x0f\xd9\xbf\xab[=\'\xbdo\xe4\xbf~\xc6\x85\x03!Y\xe1\xbf\xfc\x1d\x8a\x02}"\xe6\xbf\x81&\xc2\x86\xa7W\xf0\xbf\x054\x116<\xbd\xe2\xbfUj\xf6@+0\xd6\xbf\xd8\x81sF\x94\xf6\xf3?i\x00o\x81\x04\xc5\xf3?9\xd6\xc5m4\x80\xf9?\x02&p\xebn\x9e\xd2\xbf\x9c\xa7:\xe4f\xb8\xd5?\xca\x1a\xf5\x10\x8d\xee\xda\xbfKvl\x04\xe2u\xe4?\x9c\xc4 \xb0rh\x03@Uj\xf6@+0\xd6\xbf_\x98L\x15\x8cJ\xc6?)a\xa6\xed_Y\xe6\xbf\xcaO\xaa}:\x1e\xe7\xbf\xab[=\'\xbdo\xe4\xbf~\xc6\x85\x03!Y\xe1\xbf\xfc\x1d\x8a\x02}"\xe6\xbf\x19x\xee=\\r\xc8\xbf\x054\x116<\xbd\xe2\xbfUj\xf6@+0\xd6\xbf\xcc\x7fH\xbf}\x1d\xf4\xbf)a\xa6\xed_Y\xe6\xbf\xcaO\xaa}:\x1e\xe7\xbf\xff\xd17i\x1a\x14\xad?~\xc6\x85\x03!Y\xe1\xbf\xab\xcf\xd5V\xec/\xc3\xbf\x81&\xc2\x86\xa7W\xf0\xbf\x054\x116<\xbd\xe2\xbfUj\xf6@+0\xd6\xbf\xd8\x81sF\x94\xf6\xf3?i\x00o\x81\x04\xc5\xf3?9\xd6\xc5m4\x80\xf9?\x0b\xb5\xa6y\xc7)\xf7?e\xa5I)\xe8\xf6\xe8?Ll>\xae\r\x15\xd9?Kvl\x04\xe2u\xe4?\x9c\xc4 \xb0rh\x03@DQ\xa0O\xe4I\xd0?`vO\x1e\x16j\xff?\x1aL\xc3\xf0\x111\xd1?\r\x8d\'\x828\x0f\xaf\xbf\xb0\x03\xe7\x8c(\xed\x03@\x9c\xa7:\xe4f\xb8\xd5?\x1a\xc0[ A\xf1\xfb?b\xa1\xd64\xef\xb8\x05@\x054\x116<\xbd\xe2\xbfUj\xf6@+0\xd6\xbf\xcc\x7fH\xbf}\x1d\xf4\xbf)a\xa6\xed_Y\xe6\xbf\xcaO\xaa}:\x1e\xe7\xbf\xab[=\'\xbdo\xe4\xbf~\xc6\x85\x03!Y\xe1\xbf`\xe5\xd0"\xdb\xf9\xbe?\x81&\xc2\x86\xa7W\xf0\xbf\x054\x116<\xbd\xe2\xbfUj\xf6@+0\xd6\xbf_\x98L\x15\x8cJ\xc6?\x901w-!\x9f\x01@]\xdcF\x03x\x0b\x02@)\xed\r\xbe0\x99\xf1?tF\x94\xf6\x06\xdf\x07@\x1a\xc0[ A\xf1\xfb?b\xa1\xd64\xef\xb8\x05@ffffff\xf1?I.\xff!\xfdv\x00@_\x98L\x15\x8cJ\xc6?\x901w-!\x9f\x01@]\xdcF\x03x\x0b\x02@\xb0\x03\xe7\x8c(\xed\x03@e\xa5I)\xe8\xf6\xe8?\xca\x1a\xf5\x10\x8d\xee\xda\xbf)\\\x8f\xc2\xf5(\xfe?\x81\x9aZ\xb6\xd6\x17\xe8?Uj\xf6@+0\xd6\xbf4\x16Mg\'\x83\xc7\xbfD\xfa\xed\xeb\xc09\xed?m\xe7\xfb\xa9\xf1\xd2\xed?5\xb5l\xad/\x12\xe8?\xa0\x89\xb0\xe1\xe9\x95\xfa?\xbd\xc6.Q\xbd5\xe5?\xa3\x92:\x01M\x84\xf7?o\xf0\x85\xc9T\xc1\xf6?o\x86\x1b\xf0\xf9a\xeb?_\x98L\x15\x8cJ\xc6?%\x05\x16\xc0\x94\x81\xab\xbf\r\x8d\'\x828\x0f\xaf\xbf\xff\xd17i\x1a\x14\xad?\x7f\xfb:p\xce\x88\xf3?\x1a\xc0[ A\xf1\xfb?\x19x\xee=\\r\xc8\xbf\x054\x116<\xbd\xe2\xbfUj\xf6@+0\xd6\xbf`vO\x1e\x16j\xff?\x901w-!\x9f\x01@]\xdcF\x03x\x0b\x02@\xdd\xea9\xe9}\xe3\xd9?\x19\xe2X\x17\xb7\xd1\x00@\xfc\x1d\x8a\x02}"\xe6\xbf)\\\x8f\xc2\xf5(\xfe?\x9c\xc4 \xb0rh\x03@Uj\xf6@+0\xd6\xbf\x14:\xaf\xb1KT\xe1\xbf)a\xa6\xed_Y\xe6\xbf\r\x8d\'\x828\x0f\xaf\xbf\xab[=\'\xbdo\xe4\xbf3\xa7\xcbbb\xf3\xb9\xbf`\xe5\xd0"\xdb\xf9\xbe?\x81&\xc2\x86\xa7W\xf0\xbf\x054\x116<\xbd\xe2\xbfUj\xf6@+0\xd6\xbf`vO\x1e\x16j\xff?)\xd0\'\xf2$\xe9\xe2?]\xdcF\x03x\x0b\x02@\xff\xd17i\x1a\x14\xad?e\xa5I)\xe8\xf6\xe8?\x83/L\xa6\nF\xf3?\xa3\x92:\x01M\x84\xf7?\x07\xce\x19Q\xda\x1b\xfc?o\x86\x1b\xf0\xf9a\xeb?_\x98L\x15\x8cJ\xc6?%\x05\x16\xc0\x94\x81\xab\xbfm\xe7\xfb\xa9\xf1\xd2\xed?\xab[=\'\xbdo\xe4\xbf~\xc6\x85\x03!Y\xe1\xbf\xfc\x1d\x8a\x02}"\xe6\xbf\x81&\xc2\x86\xa7W\xf0\xbf\x054\x116<\xbd\xe2\xbfUj\xf6@+0\xd6\xbf\xa0\x1a/\xdd$\x06\xe1?)\xd0\'\xf2$\xe9\xe2?\xce\x8d\xe9\tK<\xe3?}\xd0\xb3Y\xf5\xb9\xfc?\x9c\xa7:\xe4f\xb8\xd5?\x1a\xc0[ A\xf1\xfb?\x19x\xee=\\r\xc8\xbfM\x89$z\x19\xc5\xda?Uj\xf6@+0\xd6\xbf\x14:\xaf\xb1KT\xe1\xbf)a\xa6\xed_Y\xe6\xbf\xcaO\xaa}:\x1e\xe7\xbf\xab[=\'\xbdo\xe4\xbf~\xc6\x85\x03!Y\xe1\xbf\xfc\x1d\x8a\x02}"\xe6\xbf/\xa8o\x99\xd3e\xe3\xbf\x054\x116<\xbd\xe2\xbfUj\xf6@+0\xd6\xbf\x14:\xaf\xb1KT\xe1\xbf)a\xa6\xed_Y\xe6\xbf\xcaO\xaa}:\x1e\xe7\xbf\xab[=\'\xbdo\xe4\xbf~\xc6\x85\x03!Y\xe1\xbf\xfc\x1d\x8a\x02}"\xe6\xbf\x19x\xee=\\r\xc8\xbf\x054\x116<\xbd\xe2\xbfUj\xf6@+0\xd6\xbf'
p15
tp16
bsS'params'
p17
g2
(g3
(I0
tp18
g5
tp19
Rp20
(I1
(I333
tp21
g12
I00
S'\xf0`\xa0\xfb\xe9\xf8\x0f\xc0D\x11\xf6,^\x11\x1d@\xe1\xef\x0b.6\x94\x11\xc0\x00}\xc3\xe8`b\x13\xc0 H\x1c\xb3\x0bu\x16\xc0\xfe\xd5\xb9\xd2\xc8\x95\x11\xc0\x8e\x95\xda\x84\xafG\x18@\xee\xd40\x8cL\x07\x0f\xc02\xaf\xf0\x91P\xb4\x18\xc0\x87\x12\x0f\x1f\xa1\x11\x1b@\x8c\x8f\xc1u\x9d\x02\x18\xc0\xa5\xbd\xa14\xac\xee\x17\xc0\x8c\xbfg\xe4E\xc9\x11\xc0$\xec\x82=\xe4.\x10@A\x0fX\xcb\xc9\x95\x11\xc0\x8b\r\xf7\xa4r\xb9\x14\xc0\xe0\x93\x04bv\xf9\x18@7\xd0\xdf@\xb9n\x14@\x16\x17\x03\xfd\xf8\xb9\x15\xc0\x06\xad\xa7$\xbc[\x18@\xab\xe2s\x91\xefa\x12@\x0b\x1a\x82\x8d \xf1\r@{\xa7\x04\xe2\x0f\x1d\xd9?\xc1\xf2\xe9\xeb6\x16\x16@\xb9\xa2(\x8e\x8b\xec\x0f\xc0I\xce}\xca\x15|\x1c@\xc6\xd3\xf8\x8f*\x02\x05\xc0\xca\x8a\x95\xbbc\x06\x0e@ =\x83&`\xd4\x15\xc0bs\x0c\xaep\x11\x15\xc0\xb8Q\xa02Q\xeb\r\xc0\x8f\xe7\xc9CU\xe2\xf7?_\xa66\x9a\xe4s\x11\xc0\x82\xc02C\x97G\x1a\xc0d2!i\x0f(\x19\xc0\xfc\x14Gz\xe5u\x19\xc0\xde\x18\xd6\xe8\x8a\x0f\xe5\xbf\xf3\xd6\x93\xca\xd3\x08\xfd\xbf\x13q\xa7\xf5\xbf\x81\x18\xc0|5}\x8bhc\xcf?q\xa1*\xec\xa9\xa2\x16\xc0_\xf6P\x01\x0f\x96\x18\xc0*\\\xad\xfdH\xc2\x12\xc0\xa3\x18q\x1d\xa9J\xef\xbf\x11\x19Gz\xe5u\x19\xc0\x1d\r\xe0\x06w\t\n\xc0\x8c\x9b1\xee\x95\xc7\xf6\xbf\xd5\xb9\xad\\&o\xea?\x1c\x98\x7f@\xe6\xbe\x08\xc0e\x13i\x9a$\x1f\xbf?\xbes\x8d\xc5\xdd\x19\xd3?\xd8\xf0\xbaA\xd8\xfb\xf2\xbfuH>|\xa7\xb5\xf6\xbf\xdbA\xc9>\xc5L\xcb?\xe5\xf3\x7f\x0f\xd1\r\r\xc0\x13\\\r\xa8\x0c\xfb\xaa?E\xa2Z6\xb0N\x00\xc0;$\xa7|\t\xae\xf4\xbf\xc7P\xb1h^\xe3\x19\xc0\xba9\xc5\xa4#p\x19\xc0\x12\xb6v\xa0\x1f\xd5\x07@8\xf8\x90\x05\xef\x96\x08@u\xf1\xc1\xf7\x9a@\xfb?_\x98L\x15\x8cJ\xc6?)a\xa6\xed_Y\xe6\xbf\xcaO\xaa}:\x1e\xe7\xbf\xab[=\'\xbdo\xe4\xbf3\xa7\xcbbb\xf3\xb9\xbf\xca\x1a\xf5\x10\x8d\xee\xda\xbf/\xa8o\x99\xd3e\xe3\xbfU\xbc\x91y\xe4\x0f\xd0\xbfUj\xf6@+0\xd6\xbf\xd8\x81sF\x94\xf6\xf3?\x901w-!\x9f\x01@]\xdcF\x03x\x0b\x02@\xb0\x03\xe7\x8c(\xed\x03@\x7f\xfb:p\xce\x88\xf3?\x1a\xc0[ A\xf1\xfb?b\xa1\xd64\xef\xb8\x05@\x9c\xc4 \xb0rh\x03@\xc4\xb1.n\xa3A\x14@\x14:\xaf\xb1KT\xe1\xbf)a\xa6\xed_Y\xe6\xbf\xcaO\xaa}:\x1e\xe7\xbf\x02&p\xebn\x9e\xd2\xbf3\xa7\xcbbb\xf3\xb9\xbf`\xe5\xd0"\xdb\xf9\xbe?\x81&\xc2\x86\xa7W\xf0\xbf\x054\x116<\xbd\xe2\xbfUj\xf6@+0\xd6\xbf4\x16Mg\'\x83\xc7\xbf)a\xa6\xed_Y\xe6\xbf\xcaO\xaa}:\x1e\xe7\xbf\xab[=\'\xbdo\xe4\xbf~\xc6\x85\x03!Y\xe1\xbf\xfc\x1d\x8a\x02}"\xe6\xbf\x19x\xee=\\r\xc8\xbf\x054\x116<\xbd\xe2\xbfUj\xf6@+0\xd6\xbf\x14:\xaf\xb1KT\xe1\xbf)a\xa6\xed_Y\xe6\xbf\xcaO\xaa}:\x1e\xe7\xbf\xab[=\'\xbdo\xe4\xbf~\xc6\x85\x03!Y\xe1\xbf\xfc\x1d\x8a\x02}"\xe6\xbf\x81&\xc2\x86\xa7W\xf0\xbf\x054\x116<\xbd\xe2\xbfUj\xf6@+0\xd6\xbf_\x98L\x15\x8cJ\xc6?)a\xa6\xed_Y\xe6\xbf\xcaO\xaa}:\x1e\xe7\xbf\xab[=\'\xbdo\xe4\xbf~\xc6\x85\x03!Y\xe1\xbf\xfc\x1d\x8a\x02}"\xe6\xbf\x19x\xee=\\r\xc8\xbf\x054\x116<\xbd\xe2\xbfUj\xf6@+0\xd6\xbf\xe3\xa5\x9b\xc4 \xb0\xf9?\x1aL\xc3\xf0\x111\xd1?\xce\x8d\xe9\tK<\xe3?\xb0\x03\xe7\x8c(\xed\x03@\x7f\xfb:p\xce\x88\xf3?\x1a\xc0[ A\xf1\xfb?\x8a\xb0\xe1\xe9\x95\xb2\xcc?\x07\xce\x19Q\xda\x1b\xfc?Uj\xf6@+0\xd6\xbf\xcc\x7fH\xbf}\x1d\xf4\xbf%\x05\x16\xc0\x94\x81\xab\xbf\xcaO\xaa}:\x1e\xe7\xbf\x02&p\xebn\x9e\xd2\xbf~\xc6\x85\x03!Y\xe1\xbf\xca\x1a\xf5\x10\x8d\xee\xda\xbfKvl\x04\xe2u\xe4?\xa3:\x1d\xc8zj\xb5?DQ\xa0O\xe4I\xd0?\xcc\x7fH\xbf}\x1d\xf4\xbf)a\xa6\xed_Y\xe6\xbf\xcaO\xaa}:\x1e\xe7\xbf\xab[=\'\xbdo\xe4\xbf~\xc6\x85\x03!Y\xe1\xbf\xfc\x1d\x8a\x02}"\xe6\xbf/\xa8o\x99\xd3e\xe3\xbf\x054\x116<\xbd\xe2\xbfUj\xf6@+0\xd6\xbf\xd8\x81sF\x94\xf6\xf3?!\xb0rh\x91\xed\xf8?\xf7\xe4a\xa1\xd64\xf4?\xdd\xea9\xe9}\xe3\xd9?tF\x94\xf6\x06\xdf\x07@\x1a\xc0[ A\xf1\xfb?\xa3\x92:\x01M\x84\xf7?\x07\xce\x19Q\xda\x1b\xfc?/\xdd$\x06\x81\x15\n@\xcc\x7fH\xbf}\x1d\xf4\xbf)a\xa6\xed_Y\xe6\xbf\xcaO\xaa}:\x1e\xe7\xbf\xab[=\'\xbdo\xe4\xbf~\xc6\x85\x03!Y\xe1\xbf\xfc\x1d\x8a\x02}"\xe6\xbf\x19x\xee=\\r\xc8\xbf\x054\x116<\xbd\xe2\xbfUj\xf6@+0\xd6\xbf\x9c.\x8b\x89\xcd\xc7\xec\xbf)a\xa6\xed_Y\xe6\xbf\xcaO\xaa}:\x1e\xe7\xbf\xab[=\'\xbdo\xe4\xbf~\xc6\x85\x03!Y\xe1\xbf\xfc\x1d\x8a\x02}"\xe6\xbf\x81&\xc2\x86\xa7W\xf0\xbf\x054\x116<\xbd\xe2\xbfUj\xf6@+0\xd6\xbf_\x98L\x15\x8cJ\xc6?)a\xa6\xed_Y\xe6\xbfW\xec/\xbb\'\x0f\xd9\xbf\xab[=\'\xbdo\xe4\xbf~\xc6\x85\x03!Y\xe1\xbf\xfc\x1d\x8a\x02}"\xe6\xbf\x81&\xc2\x86\xa7W\xf0\xbf\x054\x116<\xbd\xe2\xbfUj\xf6@+0\xd6\xbf\xd8\x81sF\x94\xf6\xf3?i\x00o\x81\x04\xc5\xf3?9\xd6\xc5m4\x80\xf9?\x02&p\xebn\x9e\xd2\xbf\x9c\xa7:\xe4f\xb8\xd5?\xca\x1a\xf5\x10\x8d\xee\xda\xbfKvl\x04\xe2u\xe4?\x9c\xc4 \xb0rh\x03@Uj\xf6@+0\xd6\xbf_\x98L\x15\x8cJ\xc6?)a\xa6\xed_Y\xe6\xbf\xcaO\xaa}:\x1e\xe7\xbf\xab[=\'\xbdo\xe4\xbf~\xc6\x85\x03!Y\xe1\xbf\xfc\x1d\x8a\x02}"\xe6\xbf\x19x\xee=\\r\xc8\xbf\x054\x116<\xbd\xe2\xbfUj\xf6@+0\xd6\xbf\xcc\x7fH\xbf}\x1d\xf4\xbf)a\xa6\xed_Y\xe6\xbf\xcaO\xaa}:\x1e\xe7\xbf\xff\xd17i\x1a\x14\xad?~\xc6\x85\x03!Y\xe1\xbf\xab\xcf\xd5V\xec/\xc3\xbf\x81&\xc2\x86\xa7W\xf0\xbf\x054\x116<\xbd\xe2\xbfUj\xf6@+0\xd6\xbf\xd8\x81sF\x94\xf6\xf3?i\x00o\x81\x04\xc5\xf3?9\xd6\xc5m4\x80\xf9?\x0b\xb5\xa6y\xc7)\xf7?e\xa5I)\xe8\xf6\xe8?Ll>\xae\r\x15\xd9?Kvl\x04\xe2u\xe4?\x9c\xc4 \xb0rh\x03@DQ\xa0O\xe4I\xd0?`vO\x1e\x16j\xff?\x1aL\xc3\xf0\x111\xd1?\r\x8d\'\x828\x0f\xaf\xbf\xb0\x03\xe7\x8c(\xed\x03@\x9c\xa7:\xe4f\xb8\xd5?\x1a\xc0[ A\xf1\xfb?b\xa1\xd64\xef\xb8\x05@\x054\x116<\xbd\xe2\xbfUj\xf6@+0\xd6\xbf\xcc\x7fH\xbf}\x1d\xf4\xbf)a\xa6\xed_Y\xe6\xbf\xcaO\xaa}:\x1e\xe7\xbf\xab[=\'\xbdo\xe4\xbf~\xc6\x85\x03!Y\xe1\xbf`\xe5\xd0"\xdb\xf9\xbe?\x81&\xc2\x86\xa7W\xf0\xbf\x054\x116<\xbd\xe2\xbfUj\xf6@+0\xd6\xbf_\x98L\x15\x8cJ\xc6?\x901w-!\x9f\x01@]\xdcF\x03x\x0b\x02@)\xed\r\xbe0\x99\xf1?tF\x94\xf6\x06\xdf\x07@\x1a\xc0[ A\xf1\xfb?b\xa1\xd64\xef\xb8\x05@ffffff\xf1?I.\xff!\xfdv\x00@_\x98L\x15\x8cJ\xc6?\x901w-!\x9f\x01@]\xdcF\x03x\x0b\x02@\xb0\x03\xe7\x8c(\xed\x03@e\xa5I)\xe8\xf6\xe8?\xca\x1a\xf5\x10\x8d\xee\xda\xbf)\\\x8f\xc2\xf5(\xfe?\x81\x9aZ\xb6\xd6\x17\xe8?Uj\xf6@+0\xd6\xbf4\x16Mg\'\x83\xc7\xbfD\xfa\xed\xeb\xc09\xed?m\xe7\xfb\xa9\xf1\xd2\xed?5\xb5l\xad/\x12\xe8?\xa0\x89\xb0\xe1\xe9\x95\xfa?\xbd\xc6.Q\xbd5\xe5?\xa3\x92:\x01M\x84\xf7?o\xf0\x85\xc9T\xc1\xf6?o\x86\x1b\xf0\xf9a\xeb?_\x98L\x15\x8cJ\xc6?%\x05\x16\xc0\x94\x81\xab\xbf\r\x8d\'\x828\x0f\xaf\xbf\xff\xd17i\x1a\x14\xad?\x7f\xfb:p\xce\x88\xf3?\x1a\xc0[ A\xf1\xfb?\x19x\xee=\\r\xc8\xbf\x054\x116<\xbd\xe2\xbfUj\xf6@+0\xd6\xbf`vO\x1e\x16j\xff?\x901w-!\x9f\x01@]\xdcF\x03x\x0b\x02@\xdd\xea9\xe9}\xe3\xd9?\x19\xe2X\x17\xb7\xd1\x00@\xfc\x1d\x8a\x02}"\xe6\xbf)\\\x8f\xc2\xf5(\xfe?\x9c\xc4 \xb0rh\x03@Uj\xf6@+0\xd6\xbf\x14:\xaf\xb1KT\xe1\xbf)a\xa6\xed_Y\xe6\xbf\r\x8d\'\x828\x0f\xaf\xbf\xab[=\'\xbdo\xe4\xbf3\xa7\xcbbb\xf3\xb9\xbf`\xe5\xd0"\xdb\xf9\xbe?\x81&\xc2\x86\xa7W\xf0\xbf\x054\x116<\xbd\xe2\xbfUj\xf6@+0\xd6\xbf`vO\x1e\x16j\xff?)\xd0\'\xf2$\xe9\xe2?]\xdcF\x03x\x0b\x02@\xff\xd17i\x1a\x14\xad?e\xa5I)\xe8\xf6\xe8?\x83/L\xa6\nF\xf3?\xa3\x92:\x01M\x84\xf7?\x07\xce\x19Q\xda\x1b\xfc?o\x86\x1b\xf0\xf9a\xeb?_\x98L\x15\x8cJ\xc6?%\x05\x16\xc0\x94\x81\xab\xbfm\xe7\xfb\xa9\xf1\xd2\xed?\xab[=\'\xbdo\xe4\xbf~\xc6\x85\x03!Y\xe1\xbf\xfc\x1d\x8a\x02}"\xe6\xbf\x81&\xc2\x86\xa7W\xf0\xbf\x054\x116<\xbd\xe2\xbfUj\xf6@+0\xd6\xbf\xa0\x1a/\xdd$\x06\xe1?)\xd0\'\xf2$\xe9\xe2?\xce\x8d\xe9\tK<\xe3?}\xd0\xb3Y\xf5\xb9\xfc?\x9c\xa7:\xe4f\xb8\xd5?\x1a\xc0[ A\xf1\xfb?\x19x\xee=\\r\xc8\xbfM\x89$z\x19\xc5\xda?Uj\xf6@+0\xd6\xbf\x14:\xaf\xb1KT\xe1\xbf)a\xa6\xed_Y\xe6\xbf\xcaO\xaa}:\x1e\xe7\xbf\xab[=\'\xbdo\xe4\xbf~\xc6\x85\x03!Y\xe1\xbf\xfc\x1d\x8a\x02}"\xe6\xbf/\xa8o\x99\xd3e\xe3\xbf\x054\x116<\xbd\xe2\xbfUj\xf6@+0\xd6\xbf\x14:\xaf\xb1KT\xe1\xbf)a\xa6\xed_Y\xe6\xbf\xcaO\xaa}:\x1e\xe7\xbf\xab[=\'\xbdo\xe4\xbf~\xc6\x85\x03!Y\xe1\xbf\xfc\x1d\x8a\x02}"\xe6\xbf\x19x\xee=\\r\xc8\xbf\x054\x116<\xbd\xe2\xbfUj\xf6@+0\xd6\xbf'
p22
tp23
bs.(dp0
S'obj_track'
p1
(lp2
F798.9343684933258
aF637.1059447784764
aF472.1509880522693
aF441.4048288714475
aF293.4754488652328
aF255.44585248558593
aF217.32412627811323
aF177.59388082727676
aF203.28255698503676
aF168.50540130330992
aF146.30931696506144
aF137.23204317820313
aF129.48849887450447
aF121.44540205194306
aF118.12029521246149
aF118.82108395032856
aF116.30279684755206
aF115.1546761441066
aF113.33844189086118
aF114.43891078052148
aF112.84531957485919
aF112.32224418608618
aF109.79680586510247
aF108.70946221975872
aF107.51709910838538
aF106.52274172239022
aF106.52274172239022
aF167.13478191191814
aF96.97770939884755
aF96.46551029546735
aF95.823894281869
aF95.49839125150407
aF95.09135523480751
aF95.04917897262837
aF95.04861898867671
aF95.04863273614103
aF95.04861911081773
aF95.04861898980069
aF95.04861898868675
aF95.04861898867664
aF95.04861898867665
aF95.04861898867664
aF95.04861898867664
aF260.6450621758408
aF93.79758893160525
aF93.03418527494117
aF92.08498916848853
aF91.23435435945994
aF90.20660276712373
aF89.53589385784692
aF88.87948692163643
aF88.56958366853046
aF86.07134591347975
aF84.08775063948758
aF82.210811034109
aF80.55948702853405
aF76.66055204816708
aF74.02929571035517
aF71.98418621518834
aF71.04744105286309
aF70.84398148248904
aF70.69652909583746
aF71.18560716496164
aF70.40830857692468
aF69.85620024664888
aF69.42053760935374
aF69.29241025686116
aF69.22328687972235
aF69.22328687972235
aF193.23274650412134
aF58.55734378503101
aF57.8924481989002
aF56.00800420122964
aF55.06438934312203
aF55.02913439284348
aF55.02638107166932
aF55.02636893784536
aF55.02636718710177
aF55.026367176101104
aF55.026367176101104
aF198.95800754203333
aF53.802984460065794
aF53.43400601575677
aF52.95773414962555
aF52.533993598088905
aF52.299737313916154
aF51.99870963959198
aF51.4529380023551
aF51.13470237329899
aF50.54479733293694
aF49.96831197988689
aF49.39314785225351
aF48.81085212883153
aF48.480287149135364
aF47.73606787548754
aF47.55581227304282
aF46.876719787431824
aF46.69587377994853
aF46.44687521613481
aF46.1168006095876
aF45.62556973285757
aF45.474908206889836
aF44.37560155014357
aF44.24772391686635
aF43.87064111370814
aF43.87064111370814
aF261.49573876882283
aF41.624504118190146
aF41.42212750030216
aF41.13799518265169
aF40.60872806367959
aF40.30022125551168
aF40.249253013462116
aF40.24878428382905
aF40.24878458887808
aF40.2487842469839
aF40.24878430116531
aF40.24878412395333
aF40.24878430219091
aF40.2487841092115
aF40.248784302357635
aF40.24878411436566
aF40.24878410937544
aF40.248784109209744
aF40.2487841092102
aF40.24878410920845
aF40.248784109207804
aF40.248784109207804
aF40.24878430240026
aF40.248784114650384
aF40.24878410944844
aF40.248784109207804
aF234.8741100593307
aF39.7629549782219
aF39.55621386893501
aF38.97783591951016
aF38.67031947585796
aF38.45291390213977
aF38.40130223459728
aF38.33987183643758
aF38.23200970768556
aF38.13076465417672
aF38.04207667992556
aF37.879621716087556
aF37.64763801775921
aF37.172676764793266
aF38.30241101131165
aF37.0189504574098
aF36.638126953380066
aF36.44408450496182
aF36.36758327551773
aF36.276955064557825
aF36.12364368168247
aF35.68814768179464
aF35.22646568951854
aF34.82479783538203
aF34.94393045811589
aF34.82479783538203
aF399.74841275917356
aF35.52921038126976
aF34.569928902548185
aF34.546025328442475
aF34.466179462091425
aF34.301332202923966
aF34.295255139189074
aF34.29522959438921
aF34.29523266556228
aF34.295229707706156
aF34.29522959946362
aF34.295229594617815
aF34.295229594399714
aF34.295229594388815
aF34.29522959438873
aF34.29522959439482
aF34.295229594389625
aF34.29522959438931
aF34.29522959438873
aF34.29523300965339
aF34.29522971733338
aF34.29522959983904
aF34.295229594633064
aF34.29522959440089
aF34.29522959439044
aF34.29522959438873
aF207.28976895974426
aF34.13479909657624
aF34.01084063241061
aF33.807175988323905
aF33.639508010926875
aF33.361728984092366
aF33.414119998996206
aF33.27592305227141
aF33.2124941764271
aF33.10908319727854
aF33.01234206554464
aF32.91052178449784
aF32.83801915572716
aF32.77710011690871
aF32.5958227935993
aF32.86646823114303
aF32.5283982642488
aF32.38583669632594
aF32.27391622853294
aF32.18879892194435
aF32.11710275243466
aF32.04935021280551
aF31.989351083114663
aF31.97252017351347
aF31.916179210013706
aF31.916179210013706
aF329.68493976324766
aF32.02545189885565
aF31.57515432956945
aF31.561558618123485
aF31.514641381442708
aF31.394083749411124
aF31.390185927803913
aF31.39018631771691
aF31.390179605432387
aF31.390189152659904
aF31.390178692690895
aF31.390189180498506
aF31.39017894343791
aF31.390178693714354
aF31.390178690707046
aF31.390178690874677
aF31.390178690150968
aF31.390178690138654
aF31.39017869056708
aF31.390178690209275
aF31.390178690138654
aF31.390189186041248
aF31.390178991147536
aF31.3901787048437
aF31.39017869131053
aF31.390178690138654
aF336.3109877221629
aF31.3309937305552
aF31.311377468313943
aF31.24647103517555
aF31.194289139483978
aF31.155245379179636
aF31.111822278418842
aF31.064924037856866
aF30.966719406895535
aF30.903674755012673
aF30.847100856240804
aF30.75245199137565
aF30.69600250433027
aF30.574283106785856
aF30.437938966116242
aF30.327425386796325
aF30.046905943608138
aF30.39107256788641
aF30.012831070155073
aF29.974776894057232
aF29.918976137317678
aF29.832741653755804
aF29.665174616605427
aF29.420248543256964
aF29.12605416881125
aF29.12605416881125
aF355.10898169083305
aF29.653905896823716
aF28.969929136445366
aF28.951413122003153
aF28.88778865745394
aF28.72813051253206
aF28.72190502899383
aF28.72189164035938
aF28.721896289471633
aF28.72189181210676
aF28.721891648041595
aF28.721891640704506
aF28.721891640373865
aF28.721891640358454
aF28.721891640361157
aF28.721891640358454
aF28.721898524556153
aF28.7218918661249
aF28.72189164964702
aF28.72189164074569
aF28.721891640376363
aF28.721891640359473
aF28.721891640359935
aF28.72189164035985
aF28.721891640358454
aF28.721891640358454
aF332.53999687320567
aF28.62166086554432
aF28.572291496957483
aF28.27186686979853
aF28.20630920799361
aF28.12361744166392
aF28.104425968906824
aF27.952494603117287
aF27.930679767380546
aF27.721437894376926
aF27.65843036773336
aF27.61401942828018
aF27.5647515900148
aF27.521533068350564
aF27.510674433149624
aF27.485851513487923
aF27.478780781697544
aF27.46173432162474
aF27.430302578696445
aF27.41601908948534
aF27.403789221273083
aF27.3934680264744
aF27.367843837007797
aF27.303938645021898
aF27.223027357985522
aF27.223027357985522
aF361.694517042186
aF27.759061283387698
aF27.16710063661634
aF27.166139467450833
aF27.15953223963075
aF27.15437987437489
aF27.15138747926492
aF27.151391646079787
aF27.151387728296125
aF27.151387510082344
aF27.15138748364442
aF27.151387479901288
aF27.151387479356337
aF27.151387479279187
aF27.15138747926685
aF27.15138747926536
aF27.15138747926488
aF27.151387479264883
aF27.151387479264592
aF27.151387479265154
aF27.151387479264592
aF27.1514509059228
aF27.15138908636054
aF27.15138758404564
aF27.151387486619214
aF27.151387479264592
aF439.90981036784996
aF27.11863539259828
aF27.112965808606127
aF27.089167230477223
aF27.068563277351263
aF27.05720741975353
aF27.026791277705303
aF27.018833104830343
aF27.00286506091988
aF26.989202030234495
aF26.970003833392493
aF26.948446296168683
aF26.923971095049723
aF26.890186447313845
aF26.97872226235029
aF26.871522198722218
aF26.830168179545815
aF26.79712874109788
aF26.766799847257705
aF26.760832591382965
aF26.73300594873563
aF26.7173149168009
aF26.69011712820204
aF26.652199545505894
aF26.652053655535212
aF26.652053655535212
aF315.80477701016935
aF27.175872809140266
aF26.639938780748324
aF26.637213717427983
aF26.627568180844225
aF26.597874710877804
aF26.59719047511649
aF26.597200597253504
aF26.59719090945778
aF26.597190497988226
aF26.597190476333804
aF26.59719047518224
aF26.597190475121728
aF26.597190475116857
aF26.597190475116072
aF26.597190475116932
aF26.597190475116072
aF26.59867783485399
aF26.5971960224839
aF26.597190745331275
aF26.597190490358063
aF26.597190475984824
aF26.59719047516569
aF26.59719047511988
aF26.597190475116573
aF26.597190475116072
aF467.4124300043003
aF26.498082081893607
aF26.485080273029425
aF26.404079845740284
aF26.395720599521006
aF26.37706103966791
aF26.36910797665409
aF26.3502474687678
aF26.326243982071674
aF26.324878292848098
aF26.30806365480661
aF26.27636516602064
aF26.248559522066767
aF26.227815085204774
aF26.208055622823487
aF26.216948914775987
aF26.200787696875107
aF26.191641074350294
aF26.18815166402014
aF26.180662623276234
aF26.17118854983756
aF26.158608897884513
aF26.154304736495533
aF26.134094257800992
aF26.12975051169507
aF26.12975051169507
aF369.4758471637715
aF26.75478173545729
aF26.127269145356756
aF26.127249861045446
aF26.12716980928175
aF26.127068781128862
aF26.126970067827592
aF26.126938402099604
aF26.126928349954355
aF26.126925948181277
aF26.126925765565716
aF26.12692576341231
aF26.12692576341231
aF72.32678070323551
aF26.116773550134877
aF26.10580822470878
aF26.09839811341026
aF26.09059226554662
aF26.084756397087098
aF26.081011018223435
aF26.077477205576464
aF26.07263486672639
aF26.063601577382556
aF26.059796257259567
aF26.040874078162886
aF26.033999171890912
aF26.02376103767874
aF26.004311450470986
aF25.980061108090176
aF25.969068760478144
aF25.957188101899305
aF25.9537799018375
aF25.949708384177917
aF25.936799791229856
aF25.909919199082392
aF25.868213006552235
aF25.81224652262798
aF25.76992334554935
aF25.76992334554935
aF326.4086893489499
aF26.278728403075572
aF25.75898132232126
aF25.75719641637445
aF25.75102704937858
aF25.731190170677074
aF25.72936843058297
aF25.729381787072523
aF25.729368991012898
aF25.729368459193385
aF25.729368432058948
aF25.72936843065893
aF25.729368430587428
aF25.72936843058361
aF25.729368430582724
aF25.729368430583307
aF25.729368430582724
aF25.73066157126023
aF25.72937530120185
aF25.72936874415894
aF25.729368446628612
aF25.729368431408176
aF25.72936843062549
aF25.7293684305844
aF25.729368430583307
aF25.729368430582724
aF398.48149047825785
aF25.706751298931813
aF25.69908629812976
aF25.676367836075293
aF25.673121741247996
aF25.666463602064077
aF25.66351757399531
aF25.659188217848254
aF25.651170717578267
aF25.632655638921364
aF25.657441123679913
aF25.62526433734812
aF25.609889950915996
aF25.603016939887965
aF25.601600879471412
aF25.600553339975647
aF25.598859706923456
aF25.594188216134896
aF25.594222357860414
aF25.591089757910275
aF25.58764727113346
aF25.585490888195316
aF25.58424810239611
aF25.582562985509913
aF25.580593784355056
aF25.580593784355056
aF93.91578638734546
aF25.580129067605874
aF25.57928033033658
aF25.578921919183994
aF25.57725312717387
aF25.575966503723635
aF25.575335030630836
aF25.57534490962584
aF25.575335568703778
aF25.57533507169253
aF25.575335033854415
aF25.575335030883252
aF25.575335030650784
aF25.57533503063246
aF25.575335030630107
aF25.575335030630715
aF25.575335030630107
aF25.575335673446467
aF25.575334945037262
aF25.575340518449757
aF25.575335278504923
aF25.57533497476946
aF25.575334947797217
aF25.575334945295502
aF25.575334945061826
aF25.575334945037262
aF265.9353833095015
aF25.574678389334274
aF25.57423682388437
aF25.572665736528315
aF25.571927792010413
aF25.571259285286885
aF25.57001288340214
aF25.569003283388582
aF25.56613983650807
aF25.561360275805228
aF25.57313803675963
aF25.558985935250327
aF25.55421615854008
aF25.551685643240077
aF25.549586134074687
aF25.547186237709106
aF25.541620054410934
aF25.53235364442828
aF25.533077536956277
aF25.524888612102398
aF25.51073817945166
aF25.500590184563087
aF25.500960608976193
aF25.495145091988565
aF25.489405205733796
aF25.489405205733796
aF32.96311843035073
aF25.48794653431066
aF25.485889372373386
aF25.479760866247226
aF25.475438163966835
aF25.475446040147332
aF25.475435136121664
aF25.475448630929286
aF25.475435056359025
aF25.475448636432443
aF25.47543565829839
aF25.475435126234053
aF25.475435068021106
aF25.475435058485598
aF25.475435056753497
aF25.475435056434
aF25.475435056374295
aF25.475435056362524
aF25.47543505636129
aF25.47543505636191
aF25.475435056360816
aF25.47543505636002
aF25.475435056359025
aF25.475435056359025
aF25.475435056359405
aF25.475435056359025
aF259.57134746796964
aF25.47354663104972
aF25.472165071755
aF25.466137749314928
aF25.460755004777322
aF25.4547434219731
aF25.44684436272626
aF25.439759114570943
aF25.43452996449531
aF25.429482619276534
aF25.42887757567674
aF25.426971493269328
aF25.425412718846726
aF25.42200150948303
aF25.41902251725331
aF25.41694035070636
aF25.417986685433615
aF25.416199528395694
aF25.415849865942082
aF25.415493938695484
aF25.414952665870644
aF25.41422064154876
aF25.412908543955616
aF25.411408780371303
aF25.408793378327406
aF25.408793378327406
aF31.845102578910048
aF25.408672260114777
aF25.408646013371243
aF25.408572791789844
aF25.408350716350526
aF25.40825002891728
aF25.408239607590378
aF25.408235876770974
aF25.408235355854792
aF25.408235339242164
aF25.408235339242164
aF155.13636262558452
aF25.40685819534668
aF25.405460125394264
aF25.403790532904935
aF25.40329922601395
aF25.402961728273453
aF25.402662465470513
aF25.402237001851134
aF25.401546900050786
aF25.40001611832247
aF25.39896902805708
aF25.39628791079593
aF25.395329619667827
aF25.3944949893921
aF25.393507910355837
aF25.391204356851688
aF25.38804935138132
aF25.3833153580443
aF25.38992619074272
aF25.380613135725017
aF25.37612408911234
aF25.373629624453365
aF25.370678155065
aF25.368141513542824
aF25.365823832042224
aF25.365823832042224
aF27.854419614052244
aF25.365377874776392
aF25.365017606482763
aF25.363806100224963
aF25.36219587018691
aF25.36220268514147
aF25.362196179380113
aF25.362195888289524
aF25.36219587126338
aF25.36219587025321
aF25.36219587019147
aF25.36219587018752
aF25.362195870187733
aF25.3621958701856
aF25.3621958701856
aF25.362195870184514
aF25.362195870184514
aF25.362195870184514
aF25.362195870186902
aF25.362195870184514
aF25.362195870184514
aF25.3621958701875
aF25.362195870184514
aF25.362195870184514
aF25.362195870184568
aF25.362195870184514
aF79.88771429736946
aF25.357909423533336
aF25.357617468522605
aF25.35676865541969
aF25.355917141535347
aF25.353062807629016
aF25.350833643308768
aF25.348374981194134
aF25.344358071939684
aF25.341728420894007
aF25.340201959540988
aF25.337669358037253
aF25.336352910283864
aF25.33558114226146
aF25.333865482735952
aF25.332018696193806
aF25.330786919248315
aF25.33053325156436
aF25.33038739658727
aF25.3299768716387
aF25.329575884690108
aF25.32872271254113
aF25.327336020023395
aF25.325353483430174
aF25.322182370755023
aF25.322182370755023
aF26.443533557804464
aF25.322096853418138
aF25.322085184213506
aF25.3220445640575
aF25.321970852590923
aF25.32197120776072
aF25.321970821590412
aF25.321971250112757
aF25.32197083748149
aF25.321970823095278
aF25.321970821831187
aF25.321970821637876
aF25.321970821596732
aF25.321970821593318
aF25.32197082159112
aF25.321970821591446
aF25.32197082158893
aF25.321970821591282
aF25.32197082158893
aF25.321966739722633
aF25.32196845215389
aF25.321969837732716
aF25.3219684635034
aF25.321968452246217
aF25.321968452152596
aF25.321966739722633
aF305.3509644335354
aF25.320757738360406
aF25.319868097441976
aF25.317073662653414
aF25.317710242285493
aF25.31599340778537
aF25.315773685704293
aF25.31551473933547
aF25.314629498481242
aF25.313610519442683
aF25.31253124046301
aF25.314211854902915
aF25.311992433168037
aF25.31124527251948
aF25.310827743808748
aF25.31015054441081
aF25.309824707189833
aF25.309138776722627
aF25.306568214740995
aF25.303573991280764
aF25.30253100225108
aF25.299583331899107
aF25.298720979704456
aF25.297802921025962
aF25.295483407436368
aF25.295483407436368
aF32.5013495014066
aF25.295059351500402
aF25.294992424615153
aF25.294434560546627
aF25.294119261408525
aF25.293953162485582
aF25.29395505491169
aF25.29395320976875
aF25.29395316379587
aF25.29395316252345
aF25.293953162487135
aF25.293953162485955
aF25.293953162485465
aF25.29395316248572
aF25.293953162485465
aF25.293953162485465
aF25.29395316248572
aF25.293953162485465
aF25.293953162485465
aF25.293953162484463
aF25.293953162484463
aF25.293953162484463
aF25.293953162484463
aF25.293953162484463
aF25.29395505490853
aF25.293953162484463
aF284.64650928720863
aF25.293240880813805
aF25.292739798269878
aF25.291336119563617
aF25.29043526596357
aF25.289295851196222
aF25.287726833123543
aF25.286264119324056
aF25.28437269924993
aF25.282896903476555
aF25.28218991132814
aF25.2817704845215
aF25.28143134850892
aF25.28065022409458
aF25.279576960109253
aF25.282056967792407
aF25.279260956373818
aF25.27832780631183
aF25.277802099907095
aF25.27718485788798
aF25.276844421565357
aF25.276507347041722
aF25.27621988507492
aF25.275884396400272
aF25.275058571036574
aF25.275058571036574
aF26.46207760228456
aF25.27503077362984
aF25.27499619702631
aF25.274879052898108
aF25.274631309909378
aF25.274628853786837
aF25.274628824347236
aF25.274628824347236
aF303.28263523920396
aF25.274328997048684
aF25.27413013032878
aF25.273627300153084
aF25.273545221553952
aF25.273383339671355
aF25.273265581766903
aF25.273097550798205
aF25.272914637350663
aF25.27258095851989
aF25.271938056407542
aF25.271109761570166
aF25.270693785410977
aF25.269854675882378
aF25.269225656072123
aF25.267542861572235
aF25.26578998602339
aF25.27042785122073
aF25.264908146243755
aF25.262697502902967
aF25.260532403753984
aF25.259091496864347
aF25.25802500926629
aF25.257429328794686
aF25.255679403506228
aF25.255679403506228
aF34.53500522189911
aF25.255132898808625
aF25.25502921463567
aF25.254373818405988
aF25.253837969932057
aF25.253470929594528
aF25.253443005085593
aF25.253436197311775
aF25.253435068425667
aF25.25343502946993
aF25.25343502946993
aF300.43755730643846
aF25.252939053569875
aF25.252643304701785
aF25.25142386019425
aF25.25062631751576
aF25.249922262140768
aF25.248123860696214
aF25.246509256757786
aF25.243555712331826
aF25.242641652964416
aF25.24194943960189
aF25.241364609061613
aF25.241105826141848
aF25.240904219673922
aF25.240498463725068
aF25.239700822140925
aF25.242632442260685
aF25.239527410995475
aF25.238984240565074
aF25.238801937083846
aF25.238460153036797
aF25.23828853287904
aF25.237764498118914
aF25.237183670055366
aF25.23652527934311
aF25.236525279343105
aF25.277925681431114
aF25.236531802337915
aF25.236522241100943
aF25.236506066684846
aF25.23648443600127
aF25.236464062629953
aF25.236463567108945
aF25.23646452276062
aF25.236463570258707
aF25.23646356712174
aF25.236463567112907
aF25.236463567108945
aF25.236463567108945
aF25.236463567112835
aF25.236463567108945
aF25.236463567108945
aF25.23646356711439
aF25.236463567108945
aF25.236463567108945
aF25.23646356711246
aF25.236463567108945
aF25.236463567108945
aF25.23646356711003
aF25.236463567108945
aF25.236463567108945
aF25.236463567108945
aF334.22651565421813
aF25.23622915578598
aF25.2360724641915
aF25.235613677743167
aF25.235617597480555
aF25.235289827038187
aF25.235123919918443
aF25.23507164922144
aF25.23490932127093
aF25.234512412319
aF25.234587815872757
aF25.234380930878743
aF25.234090087075888
aF25.233820596074544
aF25.23343614513594
aF25.23325485752953
aF25.232802435832326
aF25.231144127906365
aF25.232906507417937
aF25.230637781494217
aF25.22921585441747
aF25.228027565927544
aF25.22708980945417
aF25.225646661345934
aF25.223398932437014
aF25.223398932437014
aF36.594290883052246
aF25.222840883382734
aF25.222816129499247
aF25.222777029098808
aF25.22268356794189
aF25.222566444936604
aF25.222467053309213
aF25.222458327701318
aF25.222455380059834
aF25.222454902975826
aF25.222454893150562
aF25.222454893150562
aF246.02943638773237
aF25.2220900868231
aF25.221727902598595
aF25.220786073049318
aF25.220294040910993
aF25.22000000947995
aF25.219726888552934
aF25.218428884562513
aF25.216754336534827
aF25.214878916183206
aF25.22007959535251
aF25.214443228955844
aF25.21387620377637
aF25.213731030257943
aF25.21360007227962
aF25.21323345668703
aF25.21267089103251
aF25.21393474624577
aF25.21247748394531
aF25.212145258329688
aF25.212022058620967
aF25.211932813524797
aF25.211705236654048
aF25.211178714264946
aF25.2105486973493
aF25.2105486973493
aF25.452198517683456
aF25.21051595149219
aF25.21050850515656
aF25.210483763087808
aF25.21047843479966
aF25.21047883372902
aF25.21047843795335
aF25.210478434828246
aF25.21047843480206
aF25.210478434800603
aF25.21047843479966
aF25.21047843479966
aF25.21047843480099
aF25.21047843479966
aF25.21047843479966
aF25.210478434800535
aF25.21047843479966
aF25.21047843479966
aF25.210478434799363
aF25.210478434799363
aF25.210478434799363
aF25.210478434800038
aF25.210478434799363
aF25.210478434799363
aF25.210478434798873
aF25.210478434798873
aF472.57570108794954
aF25.209879864480442
aF25.20980054561838
aF25.209418292179542
aF25.209405145221265
aF25.209260791053993
aF25.209206374980624
aF25.20902588599652
aF25.2088858047343
aF25.20872538859644
aF25.209884175500427
aF25.20864327141992
aF25.20856493631375
aF25.208479925657777
aF25.208317104089573
aF25.207995236357498
aF25.207765171036833
aF25.207477571762883
aF25.207331970310747
aF25.207217114769257
aF25.207009837947723
aF25.206599789098277
aF25.20565527734858
aF25.205054696229986
aF25.204543903161134
aF25.204543903161134
aF28.056541886637376
aF25.20439105491196
aF25.20438852637721
aF25.20438561210844
aF25.204371393996112
aF25.204371623288928
aF25.204364118554597
aF25.204369159001253
aF25.204358616935124
aF25.20436734325119
aF25.20435741637859
aF25.204366776533767
aF25.204357483029142
aF25.204357370027516
aF25.20435739648461
aF25.204366632782836
aF25.204357754346326
aF25.204357432551443
aF25.204357402355186
aF25.204357397585994
aF25.204357396698875
aF25.20435739652291
aF25.204357396489314
aF25.204357396485868
aF25.2043573964832
aF25.204357370027516
aF206.3172437686086
aF25.204140127948932
aF25.203940551745138
aF25.203653805592083
aF25.203055144856112
aF25.20295478561451
aF25.202855543823958
aF25.202504027399087
aF25.202145606200553
aF25.201526399154176
aF25.201473615357564
aF25.201215898122086
aF25.201046045520567
aF25.200919837045923
aF25.200813861912714
aF25.200318977619496
aF25.199728312454432
aF25.199551538620995
aF25.199390767902287
aF25.19883463008287
aF25.198616348533648
aF25.198464827304875
aF25.19822121763074
aF25.197656253403316
aF25.197033530749813
aF25.197033530749813
aF25.872451051392886
aF25.196976722893996
aF25.19696820805963
aF25.19693859492381
aF25.19690083562282
aF25.196901287902097
aF25.196900858294065
aF25.19690083716646
aF25.196900835730602
aF25.196900835629112
aF25.196900835621335
aF25.196900835626515
aF25.196900835621335
aF25.19690140672978
aF25.19690086066769
aF25.19690083702774
aF25.196900835702024
aF25.196900835628533
aF25.1969008356225
aF25.19690083562221
aF25.196900835621335
aF25.196900835621335
aF25.196900835622294
aF25.1969008356224
aF25.196900835621335
aF25.196900835621335
aF347.44722775621784
aF25.19675321240488
aF25.196677775117607
aF25.19650332296922
aF25.196420813367542
aF25.19631943671584
aF25.196280515581236
aF25.19620150296789
aF25.196169260118065
aF25.196112073376078
aF25.198491720236778
aF25.196096957346334
aF25.19609852865503
aF25.19607337514922
aF25.196046705339523
aF25.196010378425353
aF25.195923528443764
aF25.19572606595427
aF25.195988359464373
aF25.195621790525998
aF25.195374287656147
aF25.194981643475046
aF25.19495225317325
aF25.194132913495512
aF25.19373775761185
aF25.19373775761185
aF25.82525320848741
aF25.193686807546698
aF25.193680481614933
aF25.19365862629315
aF25.193638265725475
aF25.19363865875213
aF25.193638287109422
aF25.19363826739245
aF25.193638265859782
aF25.19363826573693
aF25.193638265726406
aF25.193638265726044
aF25.193638265726726
aF25.193638265725475
aF25.193638265725475
aF25.193638265728126
aF25.193638265725475
aF25.193638265725475
aF25.193638265728858
aF25.193638265725475
aF25.193638265725475
aF25.193638265727394
aF25.193638265725475
aF25.193638265725475
aF25.19363826572821
aF25.193638265725475
aF192.63571094382544
aF25.19356172755544
aF25.193489993424734
aF25.193285990691965
aF25.193107978217874
aF25.192878751642485
aF25.19215234190544
aF25.191803244039804
aF25.191535845534148
aF25.191489199170647
aF25.19124387042274
aF25.19095865826034
aF25.190644488603247
aF25.190224443386377
aF25.189964556089517
aF25.189360220863243
aF25.189093607284626
aF25.18907615693001
aF25.188709007734595
aF25.188588991617422
aF25.1885277211019
aF25.188488240398023
aF25.188082924358618
aF25.187586563939107
aF25.18665921545088
aF25.18665921545088
aF28.68191161544417
aF25.18647968863815
aF25.18648045010498
aF25.186479753899523
aF25.186479698590468
aF25.186479690483495
aF25.186479688998084
aF25.18647968870965
aF25.186479688649776
aF25.186479688642244
aF25.18647968863673
aF25.186479688640873
aF25.186479688639473
aF25.186479688639306
aF25.18647968863673
aF25.186485128608673
aF25.18647894896236
aF25.1864905724553
aF25.186477651430955
aF25.18649582255513
aF25.186476555076638
aF25.186498840692735
aF25.186476036586754
aF25.186498321054007
aF25.18647591038004
aF25.18647591038004
aF300.5761314746135
aF25.186188082824604
aF25.185984299671432
aF25.18555174236761
aF25.18549482919418
aF25.185363953162348
aF25.185277749879543
aF25.185158137684382
aF25.185089313096896
aF25.18552153281133
aF25.18507428351652
aF25.185054820802936
aF25.185038172993295
aF25.185037565299382
aF25.18498796405197
aF25.184916818520016
aF25.18483188249808
aF25.184832146066988
aF25.184798440093772
aF25.18523929190296
aF25.18475733596828
aF25.184893255611485
aF25.18472766224865
aF25.18478600711152
aF25.184684324241417
aF25.184684324241417
aF25.425350632653856
aF25.18465477251889
aF25.18464957338878
aF25.18463233704106
aF25.184635009570325
aF25.184611175935736
aF25.18463510085576
aF25.18460845017715
aF25.18463520676512
aF25.18460900250212
aF25.18460842704647
aF25.184608689267854
aF25.184608443469678
aF25.18460842890039
aF25.18460842704647
aF25.18463523551243
aF25.184609212090407
aF25.184608468109303
aF25.18460843079222
aF25.184608427622834
aF25.184608427158473
aF25.184608427067957
aF25.184608427047873
aF25.184608427048524
aF25.18460842704825
aF25.18460842704647
aF197.26400975162255
aF25.1845494559672
aF25.184488117267353
aF25.18414399101963
aF25.184033359671034
aF25.184019625787467
aF25.18396236096607
aF25.183654176415224
aF25.183558879071565
aF25.183556382802035
aF25.183472073882157
aF25.183172031527924
aF25.183048900213976
aF25.183022611507997
aF25.18297478705213
aF25.182884071892406
aF25.1826882972634
aF25.182238504059345
aF25.181534684825998
aF25.181709882393683
aF25.181081633850724
aF25.18050034566769
aF25.18015045193732
aF25.179904113991757
aF25.179351990302646
aF25.179351990302646
aF26.907276952745683
aF25.179233859502382
aF25.1792152047258
aF25.179149773973784
aF25.17898674127172
aF25.178987608424446
aF25.178986302970884
aF25.178987606709317
aF25.1789862552192
aF25.17898760478358
aF25.17898630456461
aF25.178986259789426
aF25.178986255941705
aF25.178986255355056
aF25.178986255247228
aF25.178986255223805
aF25.17898625522251
aF25.178986255219154
aF25.178986255224025
aF25.17898625521952
aF25.17898625522006
aF25.178986255219154
aF25.17898756634261
aF25.178986299249555
aF25.17898625869524
aF25.178986255219154
aF362.91321348042743
aF25.178722210576115
aF25.178595981200992
aF25.17818217292769
aF25.178163706902353
aF25.17802153866225
aF25.177934521467336
aF25.17789293284276
aF25.17777921901682
aF25.178426132576703
aF25.177762699478595
aF25.177726550215937
aF25.1776894422044
aF25.17773275526315
aF25.177661585540083
aF25.177618444705182
aF25.17756042697215
aF25.177844332166647
aF25.177516184487992
aF25.17752854665903
aF25.177479269576764
aF25.177450425643556
aF25.17769259944605
aF25.17741651772451
aF25.177361775709418
aF25.177361775709418
aF25.426029229268025
aF25.177340724137583
aF25.177341055587625
aF25.177340773824618
aF25.17734073200899
aF25.177340725394487
aF25.177340724339125
aF25.177340724167223
aF25.177340724146113
aF25.177340724140414
aF25.177340724139142
aF25.177340724136272
aF25.177340724137494
aF25.177340724136272
aF25.17733858977906
aF25.177338098332587
aF25.177338326766098
aF25.17733809025534
aF25.17733819868802
aF25.17733809687971
aF25.17734081993971
aF25.177338262365783
aF25.17733811887536
aF25.177338100684317
aF25.177338097576367
aF25.17733809025534
aF262.04777401561046
aF25.177308021659975
aF25.17727782612002
aF25.17716955080834
aF25.176845881284002
aF25.176711557442705
aF25.176692486336982
aF25.176592993306194
aF25.176404594137466
aF25.17623824816073
aF25.176110774750008
aF25.176011406898013
aF25.17584218196023
aF25.175590243066488
aF25.17529937223783
aF25.174945618182228
aF25.174515821105253
aF25.174395599913346
aF25.174313676036775
aF25.17420382658155
aF25.17396938616254
aF25.17357821283238
aF25.173098565248555
aF25.172705843161886
aF25.17229910845669
aF25.17229910845669
aF25.80586928380477
aF25.172220706374656
aF25.172189429689475
aF25.172080775837557
aF25.171916511484678
aF25.171917789374184
aF25.17191652229551
aF25.17191651157747
aF25.171916511485957
aF25.1719165114851
aF25.171916511484678
aF25.171916511484678
aF25.171916511483573
aF25.171916511483573
aF25.171916511483573
aF25.17191651148555
aF25.171916511483573
aF25.171916511483573
aF25.17191651148608
aF25.171916511483573
aF25.171916511483573
aF25.171916511483808
aF25.171916511483573
aF25.171916511483573
aF25.171916511483587
aF25.171916511483573
aF288.57686616422666
aF25.17183901710839
aF25.171785413310552
aF25.17159190841482
aF25.171553000681822
aF25.171405997969714
aF25.17131799532065
aF25.171189953464122
aF25.171045724412878
aF25.170813834258105
aF25.17141479122506
aF25.170749322363296
aF25.170674032767348
aF25.170637769815237
aF25.17060221323655
aF25.17055853872334
aF25.170486487868388
aF25.170470695454945
aF25.170457765129015
aF25.170651063648087
aF25.170451929612135
aF25.170459473217527
aF25.170441436468977
aF25.17046025768132
aF25.170411186783532
aF25.170411186783532
aF25.943317454982427
aF25.170363814542405
aF25.170364570169546
aF25.170363833747494
aF25.170363815045718
aF25.17036381455938
aF25.170363814544906
aF25.170363814543435
aF25.170363814542405
aF25.170363814542405
aF25.17036381454639
aF25.170363814542405
aF25.170363814542405
aF25.170363814540767
aF25.170363814540767
aF25.170363814540767
aF25.170363814545286
aF25.170363814540767
aF25.170363814540767
aF25.17036381454198
aF25.170363814540767
aF25.170363814540767
aF25.17119902007812
aF25.17036537931952
aF25.170363852408
aF25.170363814540767
aF284.4324359999733
aF25.17035160492862
aF25.17033720161693
aF25.17022268867398
aF25.170152551535068
aF25.170102568685707
aF25.169997654537525
aF25.16990491020627
aF25.169779212492
aF25.16955008713534
aF25.16934017176309
aF25.169157897708352
aF25.168913201586612
aF25.168599473349
aF25.16824244160486
aF25.167655849117452
aF25.168053520522484
aF25.167573869675287
aF25.167503579189848
aF25.167432380651707
aF25.16732104427686
aF25.16712083487566
aF25.16693064735687
aF25.166570710994073
aF25.166175661570918
aF25.166175661570918
aF27.59117183497023
aF25.166039461940976
aF25.16603499402659
aF25.166023192592007
aF25.165992373833966
aF25.165991767005757
aF25.16598958197269
aF25.165987849132506
aF25.165987601058845
aF25.165987601058845
aF161.85235375267547
aF25.165827038415166
aF25.16564074616395
aF25.16538620043078
aF25.165343991442487
aF25.165276876783324
aF25.16519317035437
aF25.165150506917037
aF25.165046604780244
aF25.165119684589218
aF25.16496353612759
aF25.16485889553725
aF25.164864051042535
aF25.164813721056355
aF25.164789199484396
aF25.16475029166775
aF25.16469755386339
aF25.16468896312037
aF25.164662126098584
aF25.164645936294587
aF25.16463044014
aF25.16488117208364
aF25.164622899431265
aF25.16463250024473
aF25.164616006200767
aF25.164616006200767
aF25.165603616577663
aF25.16462433400133
aF25.164616525385632
aF25.164616075414813
aF25.164616018355858
aF25.164616008479662
aF25.164616006634795
aF25.16461600628216
aF25.16461600621686
aF25.164616006202188
aF25.164616006200372
aF25.164616006202714
aF25.16461600620094
aF25.16461600620263
aF25.164616006200372
aF25.164644635543404
aF25.164613913066194
aF25.16468210676434
aF25.1646166234458
aF25.164614220363745
aF25.164613956370225
aF25.16461391938659
aF25.164613913993406
aF25.16461391320157
aF25.164613913084146
aF25.164613913066194
aF382.9841554111166
aF25.164564486554504
aF25.164552275858327
aF25.164494483253343
aF25.16445130934695
aF25.16443908519858
aF25.16441304637652
aF25.16437322572389
aF25.16429830349712
aF25.164155408983053
aF25.163975423961492
aF25.16379498261127
aF25.163716838013684
aF25.16362847680849
aF25.163507510535283
aF25.163128674026993
aF25.162750666949954
aF25.162371954080754
aF25.162024135365215
aF25.162231572092857
aF25.161914034159363
aF25.16184423858294
aF25.161660526894785
aF25.161444079372323
aF25.16108870289832
aF25.16108870289832
aF26.366711223046693
aF25.160991073227635
aF25.16096847948572
aF25.16088835721177
aF25.160712132444168
aF25.16071316057218
aF25.16071219490547
aF25.160712138722673
aF25.160712133117244
aF25.16071213251763
aF25.160712132452623
aF25.16071213244438
aF25.160712132444754
aF25.160712132444424
aF25.160712132445454
aF25.160712132444168
aF25.160712132444168
aF25.160712132447415
aF25.160712132444168
aF25.160712132444168
aF25.160712132444488
aF25.160712132444168
aF25.160712132444168
aF25.160712132443948
aF25.160712132443948
aF25.160712132443948
aF394.04737035973284
aF25.16056888637245
aF25.160544559218224
aF25.160466971880687
aF25.160402891183686
aF25.16042547517511
aF25.160381716297042
aF25.160352964217566
aF25.160378194062545
aF25.16034615951684
aF25.160341028452187
aF25.1603420705147
aF25.16032498442125
aF25.160568469773295
aF25.160293808773574
aF25.16038395591886
aF25.160255022852525
aF25.16030507515467
aF25.160241205322706
aF25.160268995345916
aF25.16022854861022
aF25.160263244934093
aF25.160218946069936
aF25.1604055553941
aF25.160213922987552
aF25.160213922987552
aF25.402787678495
aF25.16019435012063
aF25.160194853033325
aF25.160194358871045
aF25.16019435027506
aF25.16019435012161
aF25.16019435011838
aF25.1601943501184
aF25.16019435012055
aF25.16019435011838
aF25.160194853035534
aF25.160194358871234
aF25.160194350277493
aF25.16019435012252
aF25.16019435012005
aF25.160194350116825
aF25.1601943501162
aF25.16019435011928
aF25.1601943501162
aF25.1601943501162
aF25.16019435011844
aF25.1601943501162
aF25.1601943501162
aF25.160194350120094
aF25.1601943501162
aF25.1601943501162
aF336.04244062121984
aF25.16018024649266
aF25.160171309958564
aF25.16014092528283
aF25.16007815514761
aF25.160032035754263
aF25.160007690140805
aF25.159972459356215
aF25.15995625472198
aF25.15993688512978
aF25.159884299302288
aF25.159762477477592
aF25.159507258604933
aF25.159154904233688
aF25.158449465963542
aF25.15797644816831
aF25.157671276958595
aF25.157525409542103
aF25.157439650106703
aF25.15717443669346
aF25.15663373771756
aF25.156096260036527
aF25.155370432332507
aF25.15492847594991
aF25.154820858214922
aF25.154820858214922
aF45.36899515212557
aF25.15390438007517
aF25.153820323680435
aF25.153773644766467
aF25.153562180517454
aF25.153344543141483
aF25.153162615854995
aF25.15314426142071
aF25.153138809391173
aF25.15313786516726
aF25.15313783642558
aF25.15313783642558
aF323.07241834122124
aF25.15307915870973
aF25.15304007575526
aF25.15280493070857
aF25.15271108847177
aF25.152625939724608
aF25.15257686316396
aF25.152504722060904
aF25.152406907334758
aF25.152311270223855
aF25.15232218216199
aF25.15226886242447
aF25.15225438377693
aF25.152250476365115
aF25.152249463508515
aF25.15225215298156
aF25.152249181636765
aF25.152259178176212
aF25.152248774064986
aF25.152334029224434
aF25.152249189383916
aF25.152248500165072
aF25.152248680201183
aF25.15227145969819
aF25.152249200835
aF25.152248500165072
aF25.589547336601047
aF25.152249877494185
aF25.15224560781843
aF25.15224845484572
aF25.152244687451123
aF25.15224941161307
aF25.15224414287865
aF25.15225102143054
aF25.152243769916044
aF25.152253261514325
aF25.1522435047609
aF25.152256028178805
aF25.152243324325234
aF25.152259033845944
aF25.152243213316236
aF25.152261707236974
aF25.152243136658747
aF25.15226308057239
aF25.152242983816187
aF25.152261218992393
aF25.152242320514258
aF25.152252677143245
aF25.1522394333059
aF25.152252801605258
aF25.15223953140469
aF25.1522394333059
aF273.89408862029586
aF25.152240053324356
aF25.152238358140572
aF25.15224286290771
aF25.152238572435174
aF25.152238382872394
aF25.152238362337712
aF25.15223835892962
aF25.152238358292117
aF25.15223835816978
aF25.152238358146207
aF25.152238358141652
aF25.152238358140785
aF25.1522383581406
aF25.152238358140576
aF25.15223835814056
aF25.152238358140572
aF25.152238358140558
aF25.152238358140565
aF25.152238358140565
aF25.152238358140565
aF25.152238358140558
asS'current_iter'
p3
I37
sS'total_evals'
p4
cnumpy.core.multiarray
scalar
p5
(cnumpy
dtype
p6
(S'i8'
p7
I0
I1
tp8
Rp9
(I3
S'<'
p10
NNNI-1
I-1
I0
tp11
bS'\x83\x06\x00\x00\x00\x00\x00\x00'
p12
tp13
Rp14
sS'delta_s'
p15
g5
(g6
(S'f8'
p16
I0
I1
tp17
Rp18
(I3
S'<'
p19
NNNI-1
I-1
I0
tp20
bS'^\xea\xa7\x00\x00x-?'
p21
tp22
Rp23
sS'delta_m'
p24
g5
(g18
S'^\x18W\xc5\x90\x94]?'
p25
tp26
Rp27
sS'obj_fun'
p28
F25.152238358140558
s.